---
triple:          'x86_64-apple-darwin'
binary-path:     c_group_operations
relocations:
  - { offsetInCU: 0x3214, offset: 0x3214, size: 0x8, addend: 0x0, symName: __ZNSt3__124__put_character_sequenceB7v160006IcNS_11char_traitsIcEEEERNS_13basic_ostreamIT_T0_EES7_PKS4_m, symObjAddr: 0x8010, symBinAddr: 0x100009FB0, symSize: 0x1F0 }
  - { offsetInCU: 0x69B6, offset: 0x69B6, size: 0x8, addend: 0x0, symName: __ZNSt3__16chronomiB7v160006IxNS_5ratioILl1ELl1000000000EEExS3_EENS_11common_typeIJNS0_8durationIT_T0_EENS5_IT1_T2_EEEE4typeERKS8_RKSB_, symObjAddr: 0x14980, symBinAddr: 0x100016920, symSize: 0x70 }
  - { offsetInCU: 0x6A23, offset: 0x6A23, size: 0x8, addend: 0x0, symName: __ZNSt3__16chronomiB7v160006INS0_12steady_clockENS0_8durationIxNS_5ratioILl1ELl1000000000EEEEES6_EENS_11common_typeIJT0_T1_EE4typeERKNS0_10time_pointIT_S8_EERKNSC_ISD_S9_EE, symObjAddr: 0x6C30, symBinAddr: 0x100008BD0, symSize: 0x50 }
  - { offsetInCU: 0x6A78, offset: 0x6A78, size: 0x8, addend: 0x0, symName: __ZNSt3__16chrono13duration_castB7v160006INS0_8durationIdNS_5ratioILl1ELl1EEEEExNS3_ILl1ELl1000000000EEEEENS_9enable_ifIXsr13__is_durationIT_EE5valueES8_E4typeERKNS2_IT0_T1_EE, symObjAddr: 0xBAA0, symBinAddr: 0x10000DA40, symSize: 0x30 }
  - { offsetInCU: 0x6DD1, offset: 0x6DD1, size: 0x8, addend: 0x0, symName: __ZNSt3__16copy_nB7v160006IPKcmPcEENS_9enable_ifIXsr33__is_cpp17_random_access_iteratorIT_EE5valueET1_E4typeES5_T0_S6_, symObjAddr: 0xD9B0, symBinAddr: 0x10000F950, symSize: 0x40 }
  - { offsetInCU: 0xD9E8, offset: 0xD9E8, size: 0x8, addend: 0x0, symName: __ZNSt3__1neB7v160006IPKNS_12basic_stringIcNS_11char_traitsIcEENS_9allocatorIcEEEEEEbRKNS_11__wrap_iterIT_EESD_, symObjAddr: 0x6E0, symBinAddr: 0x100002680, symSize: 0x30 }
  - { offsetInCU: 0xDA2B, offset: 0xDA2B, size: 0x8, addend: 0x0, symName: __ZNSt3__13maxB7v160006ImEERKT_S3_S3_, symObjAddr: 0x730, symBinAddr: 0x1000026D0, symSize: 0x30 }
  - { offsetInCU: 0xDA6E, offset: 0xDA6E, size: 0x8, addend: 0x0, symName: __ZNSt3__1eqB7v160006INS_12basic_stringIcNS_11char_traitsIcEENS_9allocatorIcEEEENS4_IS6_EEEEbRKNS_6vectorIT_T0_EESD_, symObjAddr: 0xFB0, symBinAddr: 0x100002F50, symSize: 0x90 }
  - { offsetInCU: 0xDBD2, offset: 0xDBD2, size: 0x8, addend: 0x0, symName: __ZNSt3__13maxB7v160006IiEERKT_S3_S3_, symObjAddr: 0x1090, symBinAddr: 0x100003030, symSize: 0x30 }
  - { offsetInCU: 0xDC15, offset: 0xDC15, size: 0x8, addend: 0x0, symName: __ZNSt3__1plB7v160006IcNS_11char_traitsIcEENS_9allocatorIcEEEENS_12basic_stringIT_T0_T1_EERKS9_SB_, symObjAddr: 0x1170, symBinAddr: 0x100003110, symSize: 0x110 }
  - { offsetInCU: 0xDCB7, offset: 0xDCB7, size: 0x8, addend: 0x0, symName: __ZNSt3__1lsB7v160006INS_11char_traitsIcEEEERNS_13basic_ostreamIcT_EES6_PKc, symObjAddr: 0x12B0, symBinAddr: 0x100003250, symSize: 0x40 }
  - { offsetInCU: 0xDCFD, offset: 0xDCFD, size: 0x8, addend: 0x0, symName: __ZNSt3__14endlB7v160006IcNS_11char_traitsIcEEEERNS_13basic_ostreamIT_T0_EES7_, symObjAddr: 0x1310, symBinAddr: 0x1000032B0, symSize: 0x50 }
  - { offsetInCU: 0xDD3D, offset: 0xDD3D, size: 0x8, addend: 0x0, symName: __ZNSt3__1eqB7v160006INS_9allocatorIcEEEEbRKNS_12basic_stringIcNS_11char_traitsIcEET_EES9_, symObjAddr: 0x3250, symBinAddr: 0x1000051F0, symSize: 0x110 }
  - { offsetInCU: 0xDDB0, offset: 0xDDB0, size: 0x8, addend: 0x0, symName: __ZNSt3__19make_pairB7v160006IbRiEENS_4pairINS_18__unwrap_ref_decayIT_E4typeENS3_IT0_E4typeEEEOS4_OS7_, symObjAddr: 0x3360, symBinAddr: 0x100005300, symSize: 0x30 }
  - { offsetInCU: 0xDDFF, offset: 0xDDFF, size: 0x8, addend: 0x0, symName: __ZNSt3__19make_pairB7v160006IbiEENS_4pairINS_18__unwrap_ref_decayIT_E4typeENS2_IT0_E4typeEEEOS3_OS6_, symObjAddr: 0x3390, symBinAddr: 0x100005330, symSize: 0x30 }
  - { offsetInCU: 0xDE4E, offset: 0xDE4E, size: 0x8, addend: 0x0, symName: __ZNSt3__19make_pairB7v160006IRNS_6vectorIiNS_9allocatorIiEEEES5_EENS_4pairINS_18__unwrap_ref_decayIT_E4typeENS7_IT0_E4typeEEEOS8_OSB_, symObjAddr: 0x51B0, symBinAddr: 0x100007150, symSize: 0x40 }
  - { offsetInCU: 0xDE9D, offset: 0xDE9D, size: 0x8, addend: 0x0, symName: __ZNSt3__1neB7v160006IPKiEEbRKNS_11__wrap_iterIT_EES7_, symObjAddr: 0x53C0, symBinAddr: 0x100007360, symSize: 0x30 }
  - { offsetInCU: 0xDEFC, offset: 0xDEFC, size: 0x8, addend: 0x0, symName: __ZNSt3__1eqB7v160006IPKNS_12basic_stringIcNS_11char_traitsIcEENS_9allocatorIcEEEEEEbRKNS_11__wrap_iterIT_EESD_, symObjAddr: 0x7A30, symBinAddr: 0x1000099D0, symSize: 0x40 }
  - { offsetInCU: 0xDF3F, offset: 0xDF3F, size: 0x8, addend: 0x0, symName: __ZNSt3__1neB7v160006IPNS_12basic_stringIcNS_11char_traitsIcEENS_9allocatorIcEEEEEEbRKNS_11__wrap_iterIT_EESC_, symObjAddr: 0x7E70, symBinAddr: 0x100009E10, symSize: 0x30 }
  - { offsetInCU: 0xDF82, offset: 0xDF82, size: 0x8, addend: 0x0, symName: __ZNSt3__1lsB7v160006IcNS_11char_traitsIcEENS_9allocatorIcEEEERNS_13basic_ostreamIT_T0_EES9_RKNS_12basic_stringIS6_S7_T1_EE, symObjAddr: 0x7EC0, symBinAddr: 0x100009E60, symSize: 0x50 }
  - { offsetInCU: 0xDFDA, offset: 0xDFDA, size: 0x8, addend: 0x0, symName: __ZNSt3__1eqB7v160006IPNS_12basic_stringIcNS_11char_traitsIcEENS_9allocatorIcEEEEEEbRKNS_11__wrap_iterIT_EESC_, symObjAddr: 0x7FB0, symBinAddr: 0x100009F50, symSize: 0x40 }
  - { offsetInCU: 0xE01D, offset: 0xE01D, size: 0x8, addend: 0x0, symName: __ZNSt3__116__pad_and_outputB7v160006IcNS_11char_traitsIcEEEENS_19ostreambuf_iteratorIT_T0_EES6_PKS4_S8_S8_RNS_8ios_baseES4_, symObjAddr: 0x8250, symBinAddr: 0x10000A1F0, symSize: 0x220 }
  - { offsetInCU: 0xE0ED, offset: 0xE0ED, size: 0x8, addend: 0x0, symName: __ZNSt3__19use_facetB7v160006INS_5ctypeIcEEEERKT_RKNS_6localeE, symObjAddr: 0x8750, symBinAddr: 0x10000A6F0, symSize: 0x30 }
  - { offsetInCU: 0xE5BC, offset: 0xE5BC, size: 0x8, addend: 0x0, symName: __ZNSt3__112__to_addressB7v160006IKcEEPT_S3_, symObjAddr: 0x87E0, symBinAddr: 0x10000A780, symSize: 0x10 }
  - { offsetInCU: 0xE624, offset: 0xE624, size: 0x8, addend: 0x0, symName: __ZNSt3__1miB7v160006IPKNS_12basic_stringIcNS_11char_traitsIcEENS_9allocatorIcEEEES8_EEDTmicldtfp_4baseEcldtfp0_4baseEERKNS_11__wrap_iterIT_EERKNSA_IT0_EE, symObjAddr: 0x8900, symBinAddr: 0x10000A8A0, symSize: 0x40 }
  - { offsetInCU: 0xE670, offset: 0xE670, size: 0x8, addend: 0x0, symName: __ZNSt3__14moveB7v160006IPNS_12basic_stringIcNS_11char_traitsIcEENS_9allocatorIcEEEES7_EET0_T_S9_S8_, symObjAddr: 0x89D0, symBinAddr: 0x10000A970, symSize: 0x40 }
  - { offsetInCU: 0xE6CA, offset: 0xE6CA, size: 0x8, addend: 0x0, symName: __ZNSt3__112__to_addressB7v160006INS_12basic_stringIcNS_11char_traitsIcEENS_9allocatorIcEEEEEEPT_S8_, symObjAddr: 0x8B90, symBinAddr: 0x10000AB30, symSize: 0x10 }
  - { offsetInCU: 0xE6FF, offset: 0xE6FF, size: 0x8, addend: 0x0, symName: __ZNSt3__16__moveB7v160006INS_17_ClassicAlgPolicyEPNS_12basic_stringIcNS_11char_traitsIcEENS_9allocatorIcEEEES8_S8_EENS_4pairIT0_T2_EESA_T1_SB_, symObjAddr: 0x8CC0, symBinAddr: 0x10000AC60, symSize: 0x40 }
  - { offsetInCU: 0xE76B, offset: 0xE76B, size: 0x8, addend: 0x0, symName: __ZNSt3__123__dispatch_copy_or_moveB7v160006INS_17_ClassicAlgPolicyENS_11__move_loopIS1_EENS_14__move_trivialEPNS_12basic_stringIcNS_11char_traitsIcEENS_9allocatorIcEEEESB_SB_EENS_4pairIT2_T4_EESD_T3_SE_, symObjAddr: 0x8D00, symBinAddr: 0x10000ACA0, symSize: 0x40 }
  - { offsetInCU: 0xE7E9, offset: 0xE7E9, size: 0x8, addend: 0x0, symName: __ZNSt3__121__unwrap_and_dispatchB7v160006INS_10__overloadINS_11__move_loopINS_17_ClassicAlgPolicyEEENS_14__move_trivialEEEPNS_12basic_stringIcNS_11char_traitsIcEENS_9allocatorIcEEEESD_SD_Li0EEENS_4pairIT0_T2_EESF_T1_SG_, symObjAddr: 0x8D40, symBinAddr: 0x10000ACE0, symSize: 0xB0 }
  - { offsetInCU: 0xE878, offset: 0xE878, size: 0x8, addend: 0x0, symName: __ZNSt3__114__unwrap_rangeB7v160006IPNS_12basic_stringIcNS_11char_traitsIcEENS_9allocatorIcEEEES7_EENS_4pairIT0_S9_EET_SB_, symObjAddr: 0x8DF0, symBinAddr: 0x10000AD90, symSize: 0x50 }
  - { offsetInCU: 0xEA32, offset: 0xEA32, size: 0x8, addend: 0x0, symName: __ZNSt3__113__unwrap_iterB7v160006IPNS_12basic_stringIcNS_11char_traitsIcEENS_9allocatorIcEEEENS_18__unwrap_iter_implIS7_Lb1EEELi0EEEDTclsrT0_8__unwrapclsr3stdE7declvalIT_EEEESB_, symObjAddr: 0x8EC0, symBinAddr: 0x10000AE60, symSize: 0x20 }
  - { offsetInCU: 0xEA76, offset: 0xEA76, size: 0x8, addend: 0x0, symName: __ZNSt3__19make_pairB7v160006IPNS_12basic_stringIcNS_11char_traitsIcEENS_9allocatorIcEEEES7_EENS_4pairINS_18__unwrap_ref_decayIT_E4typeENS9_IT0_E4typeEEEOSA_OSD_, symObjAddr: 0x8EE0, symBinAddr: 0x10000AE80, symSize: 0x30 }
  - { offsetInCU: 0xEAC5, offset: 0xEAC5, size: 0x8, addend: 0x0, symName: __ZNSt3__114__rewrap_rangeB7v160006IPNS_12basic_stringIcNS_11char_traitsIcEENS_9allocatorIcEEEES7_EET_S8_T0_, symObjAddr: 0x8F10, symBinAddr: 0x10000AEB0, symSize: 0x30 }
  - { offsetInCU: 0xEB11, offset: 0xEB11, size: 0x8, addend: 0x0, symName: __ZNSt3__113__rewrap_iterB7v160006IPNS_12basic_stringIcNS_11char_traitsIcEENS_9allocatorIcEEEES7_NS_18__unwrap_iter_implIS7_Lb1EEEEET_SA_T0_, symObjAddr: 0x8F40, symBinAddr: 0x10000AEE0, symSize: 0x40 }
  - { offsetInCU: 0xEC79, offset: 0xEC79, size: 0x8, addend: 0x0, symName: __ZNSt3__119__debug_db_insert_cB7v160006INS_6vectorINS_12basic_stringIcNS_11char_traitsIcEENS_9allocatorIcEEEENS5_IS7_EEEEEEvPT_, symObjAddr: 0x92B0, symBinAddr: 0x10000B250, symSize: 0x10 }
  - { offsetInCU: 0xECAA, offset: 0xECAA, size: 0x8, addend: 0x0, symName: __ZNSt3__115__debug_db_swapB7v160006INS_6vectorINS_12basic_stringIcNS_11char_traitsIcEENS_9allocatorIcEEEENS5_IS7_EEEEEEvPT_SB_, symObjAddr: 0x92C0, symBinAddr: 0x10000B260, symSize: 0x10 }
  - { offsetInCU: 0xECE9, offset: 0xECE9, size: 0x8, addend: 0x0, symName: __ZNSt3__1eqB7v160006IPKiEEbRKNS_11__wrap_iterIT_EES7_, symObjAddr: 0x9390, symBinAddr: 0x10000B330, symSize: 0x40 }
  - { offsetInCU: 0xED2C, offset: 0xED2C, size: 0x8, addend: 0x0, symName: __ZNSt3__1miB7v160006IPKNS_12basic_stringIcNS_11char_traitsIcEENS_9allocatorIcEEEEPS6_EEDTmicldtfp_4baseEcldtfp0_4baseEERKNS_11__wrap_iterIT_EERKNSB_IT0_EE, symObjAddr: 0x95C0, symBinAddr: 0x10000B560, symSize: 0x40 }
  - { offsetInCU: 0xED78, offset: 0xED78, size: 0x8, addend: 0x0, symName: __ZNSt3__119__debug_db_insert_cB7v160006INS_12basic_stringIcNS_11char_traitsIcEENS_9allocatorIcEEEEEEvPT_, symObjAddr: 0x9ED0, symBinAddr: 0x10000BE70, symSize: 0x10 }
  - { offsetInCU: 0xEDA9, offset: 0xEDA9, size: 0x8, addend: 0x0, symName: __ZNSt3__115__debug_db_swapB7v160006INS_12basic_stringIcNS_11char_traitsIcEENS_9allocatorIcEEEEEEvPT_S8_, symObjAddr: 0x9EE0, symBinAddr: 0x10000BE80, symSize: 0x10 }
  - { offsetInCU: 0xEDE8, offset: 0xEDE8, size: 0x8, addend: 0x0, symName: __ZNSt3__113move_backwardB7v160006IPNS_12basic_stringIcNS_11char_traitsIcEENS_9allocatorIcEEEES7_EET0_T_S9_S8_, symObjAddr: 0x9F40, symBinAddr: 0x10000BEE0, symSize: 0x40 }
  - { offsetInCU: 0xEE42, offset: 0xEE42, size: 0x8, addend: 0x0, symName: __ZNSt3__115__move_backwardB7v160006INS_17_ClassicAlgPolicyEPNS_12basic_stringIcNS_11char_traitsIcEENS_9allocatorIcEEEES8_S8_EENS_4pairIT0_T2_EESA_T1_SB_, symObjAddr: 0x9F80, symBinAddr: 0x10000BF20, symSize: 0x40 }
  - { offsetInCU: 0xEEAE, offset: 0xEEAE, size: 0x8, addend: 0x0, symName: __ZNSt3__123__dispatch_copy_or_moveB7v160006INS_17_ClassicAlgPolicyENS_20__move_backward_loopIS1_EENS_23__move_backward_trivialEPNS_12basic_stringIcNS_11char_traitsIcEENS_9allocatorIcEEEESB_SB_EENS_4pairIT2_T4_EESD_T3_SE_, symObjAddr: 0x9FC0, symBinAddr: 0x10000BF60, symSize: 0x40 }
  - { offsetInCU: 0xEF2C, offset: 0xEF2C, size: 0x8, addend: 0x0, symName: __ZNSt3__121__unwrap_and_dispatchB7v160006INS_10__overloadINS_20__move_backward_loopINS_17_ClassicAlgPolicyEEENS_23__move_backward_trivialEEEPNS_12basic_stringIcNS_11char_traitsIcEENS_9allocatorIcEEEESD_SD_Li0EEENS_4pairIT0_T2_EESF_T1_SG_, symObjAddr: 0xA000, symBinAddr: 0x10000BFA0, symSize: 0xB0 }
  - { offsetInCU: 0xF00D, offset: 0xF00D, size: 0x8, addend: 0x0, symName: __ZNSt3__13minB7v160006ImEERKT_S3_S3_, symObjAddr: 0xA1E0, symBinAddr: 0x10000C180, symSize: 0x30 }
  - { offsetInCU: 0xF251, offset: 0xF251, size: 0x8, addend: 0x0, symName: __ZNSt3__13minB7v160006ImNS_6__lessImmEEEERKT_S5_S5_T0_, symObjAddr: 0xA260, symBinAddr: 0x10000C200, symSize: 0x50 }
  - { offsetInCU: 0xF2E6, offset: 0xF2E6, size: 0x8, addend: 0x0, symName: __ZNSt3__120__throw_length_errorB7v160006EPKc, symObjAddr: 0xA340, symBinAddr: 0x10000C2E0, symSize: 0x70 }
  - { offsetInCU: 0xF30E, offset: 0xF30E, size: 0x8, addend: 0x0, symName: __ZNSt3__119__allocate_at_leastB7v160006INS_9allocatorINS_12basic_stringIcNS_11char_traitsIcEENS1_IcEEEEEEEENS_19__allocation_resultINS_16allocator_traitsIT_E7pointerEEERSA_m, symObjAddr: 0xA510, symBinAddr: 0x10000C4B0, symSize: 0x40 }
  - { offsetInCU: 0xF351, offset: 0xF351, size: 0x8, addend: 0x0, symName: __ZNSt3__117__libcpp_allocateB7v160006Emm, symObjAddr: 0xA680, symBinAddr: 0x10000C620, symSize: 0x20 }
  - { offsetInCU: 0xF38E, offset: 0xF38E, size: 0x8, addend: 0x0, symName: __ZNSt3__121__libcpp_operator_newB7v160006IJmEEEPvDpT_, symObjAddr: 0xA6A0, symBinAddr: 0x10000C640, symSize: 0x20 }
  - { offsetInCU: 0xF3C7, offset: 0xF3C7, size: 0x8, addend: 0x0, symName: __ZNSt3__14swapB7v160006IPNS_12basic_stringIcNS_11char_traitsIcEENS_9allocatorIcEEEEEENS_9enable_ifIXaasr21is_move_constructibleIT_EE5valuesr18is_move_assignableIS9_EE5valueEvE4typeERS9_SC_, symObjAddr: 0xA850, symBinAddr: 0x10000C7F0, symSize: 0x40 }
  - { offsetInCU: 0xF418, offset: 0xF418, size: 0x8, addend: 0x0, symName: __ZNSt3__18distanceB7v160006INS_13move_iteratorIPNS_12basic_stringIcNS_11char_traitsIcEENS_9allocatorIcEEEEEEEENS_15iterator_traitsIT_E15difference_typeESB_SB_, symObjAddr: 0xA890, symBinAddr: 0x10000C830, symSize: 0x40 }
  - { offsetInCU: 0xF45B, offset: 0xF45B, size: 0x8, addend: 0x0, symName: __ZNSt3__110__distanceB7v160006INS_13move_iteratorIPNS_12basic_stringIcNS_11char_traitsIcEENS_9allocatorIcEEEEEEEENS_15iterator_traitsIT_E15difference_typeESB_SB_NS_26random_access_iterator_tagE, symObjAddr: 0xA960, symBinAddr: 0x10000C900, symSize: 0x30 }
  - { offsetInCU: 0xF4A8, offset: 0xF4A8, size: 0x8, addend: 0x0, symName: __ZNSt3__1miB7v160006IPNS_12basic_stringIcNS_11char_traitsIcEENS_9allocatorIcEEEES7_EEDTmicldtfp_4baseEcldtfp0_4baseEERKNS_13move_iteratorIT_EERKNS9_IT0_EE, symObjAddr: 0xA990, symBinAddr: 0x10000C930, symSize: 0x40 }
  - { offsetInCU: 0xF4F7, offset: 0xF4F7, size: 0x8, addend: 0x0, symName: __ZNSt3__142__uninitialized_allocator_move_if_noexceptB7v160006INS_9allocatorINS_12basic_stringIcNS_11char_traitsIcEENS1_IcEEEEEENS_16reverse_iteratorIPS6_EESA_SA_EET2_RT_T0_T1_SB_, symObjAddr: 0xAB20, symBinAddr: 0x10000CAC0, symSize: 0x180 }
  - { offsetInCU: 0xF596, offset: 0xF596, size: 0x8, addend: 0x0, symName: __ZNSt3__142__uninitialized_allocator_move_if_noexceptB7v160006INS_9allocatorINS_12basic_stringIcNS_11char_traitsIcEENS1_IcEEEEEEPS6_S8_S8_EET2_RT_T0_T1_S9_, symObjAddr: 0xACF0, symBinAddr: 0x10000CC90, symSize: 0x100 }
  - { offsetInCU: 0xF634, offset: 0xF634, size: 0x8, addend: 0x0, symName: __ZNSt3__125__debug_db_invalidate_allB7v160006INS_6vectorINS_12basic_stringIcNS_11char_traitsIcEENS_9allocatorIcEEEENS5_IS7_EEEEEEvPT_, symObjAddr: 0xAE90, symBinAddr: 0x10000CE30, symSize: 0x10 }
  - { offsetInCU: 0xF665, offset: 0xF665, size: 0x8, addend: 0x0, symName: __ZNSt3__122__make_exception_guardB7v160006INS_29_AllocatorDestroyRangeReverseINS_9allocatorINS_12basic_stringIcNS_11char_traitsIcEENS2_IcEEEEEENS_16reverse_iteratorIPS7_EEEEEENS_28__exception_guard_exceptionsIT_EESE_, symObjAddr: 0xAEA0, symBinAddr: 0x10000CE40, symSize: 0x60 }
  - { offsetInCU: 0xF69A, offset: 0xF69A, size: 0x8, addend: 0x0, symName: __ZNSt3__1neB7v160006IPNS_12basic_stringIcNS_11char_traitsIcEENS_9allocatorIcEEEES7_EEbRKNS_16reverse_iteratorIT_EERKNS8_IT0_EE, symObjAddr: 0xAF40, symBinAddr: 0x10000CEE0, symSize: 0x40 }
  - { offsetInCU: 0xF6E6, offset: 0xF6E6, size: 0x8, addend: 0x0, symName: __ZNSt3__112__to_addressB7v160006INS_16reverse_iteratorIPNS_12basic_stringIcNS_11char_traitsIcEENS_9allocatorIcEEEEEEvEENS_5decayIDTclsr19__to_address_helperIT_EE6__callclsr3stdE7declvalIRKSB_EEEEE4typeESD_, symObjAddr: 0xAF80, symBinAddr: 0x10000CF20, symSize: 0x20 }
  - { offsetInCU: 0xF745, offset: 0xF745, size: 0x8, addend: 0x0, symName: __ZNSt3__119__allocator_destroyB7v160006INS_9allocatorINS_12basic_stringIcNS_11char_traitsIcEENS1_IcEEEEEENS_16reverse_iteratorINS8_IPS6_EEEESB_EEvRT_T0_T1_, symObjAddr: 0xB270, symBinAddr: 0x10000D210, symSize: 0x70 }
  - { offsetInCU: 0xF7A8, offset: 0xF7A8, size: 0x8, addend: 0x0, symName: __ZNSt3__1neB7v160006INS_16reverse_iteratorIPNS_12basic_stringIcNS_11char_traitsIcEENS_9allocatorIcEEEEEES9_EEbRKNS1_IT_EERKNS1_IT0_EE, symObjAddr: 0xB310, symBinAddr: 0x10000D2B0, symSize: 0x50 }
  - { offsetInCU: 0xF7F4, offset: 0xF7F4, size: 0x8, addend: 0x0, symName: __ZNSt3__112__to_addressB7v160006INS_16reverse_iteratorINS1_IPNS_12basic_stringIcNS_11char_traitsIcEENS_9allocatorIcEEEEEEEEvEENS_5decayIDTclsr19__to_address_helperIT_EE6__callclsr3stdE7declvalIRKSC_EEEEE4typeESE_, symObjAddr: 0xB360, symBinAddr: 0x10000D300, symSize: 0x20 }
  - { offsetInCU: 0xF853, offset: 0xF853, size: 0x8, addend: 0x0, symName: __ZNSt3__122__make_exception_guardB7v160006INS_29_AllocatorDestroyRangeReverseINS_9allocatorINS_12basic_stringIcNS_11char_traitsIcEENS2_IcEEEEEEPS7_EEEENS_28__exception_guard_exceptionsIT_EESC_, symObjAddr: 0xB500, symBinAddr: 0x10000D4A0, symSize: 0x60 }
  - { offsetInCU: 0xF888, offset: 0xF888, size: 0x8, addend: 0x0, symName: __ZNSt3__119__allocator_destroyB7v160006INS_9allocatorINS_12basic_stringIcNS_11char_traitsIcEENS1_IcEEEEEENS_16reverse_iteratorIPS6_EESA_EEvRT_T0_T1_, symObjAddr: 0xB730, symBinAddr: 0x10000D6D0, symSize: 0x70 }
  - { offsetInCU: 0xF8EB, offset: 0xF8EB, size: 0x8, addend: 0x0, symName: __ZNSt3__119__libcpp_deallocateB7v160006EPvmm, symObjAddr: 0xB9A0, symBinAddr: 0x10000D940, symSize: 0x30 }
  - { offsetInCU: 0xF933, offset: 0xF933, size: 0x8, addend: 0x0, symName: __ZNSt3__127__do_deallocate_handle_sizeB7v160006IJEEEvPvmDpT_, symObjAddr: 0xB9D0, symBinAddr: 0x10000D970, symSize: 0x20 }
  - { offsetInCU: 0xF971, offset: 0xF971, size: 0x8, addend: 0x0, symName: __ZNSt3__124__libcpp_operator_deleteB7v160006IJPvEEEvDpT_, symObjAddr: 0xB9F0, symBinAddr: 0x10000D990, symSize: 0x20 }
  - { offsetInCU: 0xF9D9, offset: 0xF9D9, size: 0x8, addend: 0x0, symName: __ZNSt3__122__make_exception_guardB7v160006INS_6vectorINS_12basic_stringIcNS_11char_traitsIcEENS_9allocatorIcEEEENS5_IS7_EEE16__destroy_vectorEEENS_28__exception_guard_exceptionsIT_EESC_, symObjAddr: 0xC0C0, symBinAddr: 0x10000E060, symSize: 0x40 }
  - { offsetInCU: 0xFA0E, offset: 0xFA0E, size: 0x8, addend: 0x0, symName: __ZNSt3__130__uninitialized_allocator_copyB7v160006INS_9allocatorINS_12basic_stringIcNS_11char_traitsIcEENS1_IcEEEEEEPS6_S8_S8_EET2_RT_T0_T1_S9_, symObjAddr: 0xC310, symBinAddr: 0x10000E2B0, symSize: 0x100 }
  - { offsetInCU: 0xFAAC, offset: 0xFAAC, size: 0x8, addend: 0x0, symName: __ZNSt3__118__debug_db_erase_cB7v160006INS_6vectorINS_12basic_stringIcNS_11char_traitsIcEENS_9allocatorIcEEEENS5_IS7_EEEEEEvPT_, symObjAddr: 0xC540, symBinAddr: 0x10000E4E0, symSize: 0x10 }
  - { offsetInCU: 0xFADD, offset: 0xFADD, size: 0x8, addend: 0x0, symName: __ZNSt3__118__constexpr_strlenB7v160006EPKc, symObjAddr: 0xC5E0, symBinAddr: 0x10000E580, symSize: 0x20 }
  - { offsetInCU: 0xFB09, offset: 0xFB09, size: 0x8, addend: 0x0, symName: __ZNSt3__130__uninitialized_allocator_copyB7v160006INS_9allocatorINS_12basic_stringIcNS_11char_traitsIcEENS1_IcEEEEEEPKS6_S9_PS6_EET2_RT_T0_T1_SB_, symObjAddr: 0xC930, symBinAddr: 0x10000E8D0, symSize: 0x100 }
  - { offsetInCU: 0xFBA7, offset: 0xFBA7, size: 0x8, addend: 0x0, symName: __ZNSt3__118__constexpr_memcmpB7v160006IcEEiPKT_S3_m, symObjAddr: 0xCB60, symBinAddr: 0x10000EB00, symSize: 0x30 }
  - { offsetInCU: 0xFBF8, offset: 0xFBF8, size: 0x8, addend: 0x0, symName: __ZNSt3__13maxB7v160006ImNS_6__lessImmEEEERKT_S5_S5_T0_, symObjAddr: 0xCF50, symBinAddr: 0x10000EEF0, symSize: 0x50 }
  - { offsetInCU: 0xFC52, offset: 0xFC52, size: 0x8, addend: 0x0, symName: __ZNSt3__15equalB7v160006INS_11__wrap_iterIPKNS_12basic_stringIcNS_11char_traitsIcEENS_9allocatorIcEEEEEESA_EEbT_SB_T0_, symObjAddr: 0xCFA0, symBinAddr: 0x10000EF40, symSize: 0x50 }
  - { offsetInCU: 0xFCAC, offset: 0xFCAC, size: 0x8, addend: 0x0, symName: __ZNSt3__15equalB7v160006INS_11__wrap_iterIPKNS_12basic_stringIcNS_11char_traitsIcEENS_9allocatorIcEEEEEESA_NS_10__equal_toEEEbT_SC_T0_T1_, symObjAddr: 0xCFF0, symBinAddr: 0x10000EF90, symSize: 0xA0 }
  - { offsetInCU: 0xFD58, offset: 0xFD58, size: 0x8, addend: 0x0, symName: __ZNSt3__13maxB7v160006IiNS_6__lessIiiEEEERKT_S5_S5_T0_, symObjAddr: 0xD120, symBinAddr: 0x10000F0C0, symSize: 0x50 }
  - { offsetInCU: 0xFDED, offset: 0xFDED, size: 0x8, addend: 0x0, symName: __ZNSt3__112__to_addressB7v160006IcEEPT_S2_, symObjAddr: 0xD3D0, symBinAddr: 0x10000F370, symSize: 0x10 }
  - { offsetInCU: 0x10024, offset: 0x10024, size: 0x8, addend: 0x0, symName: __ZNSt3__14copyB7v160006IPKcPcEET0_T_S5_S4_, symObjAddr: 0xD9F0, symBinAddr: 0x10000F990, symSize: 0x40 }
  - { offsetInCU: 0x1007E, offset: 0x1007E, size: 0x8, addend: 0x0, symName: __ZNSt3__16__copyB7v160006INS_17_ClassicAlgPolicyEPKcS3_PcEENS_4pairIT0_T2_EES6_T1_S7_, symObjAddr: 0xDA30, symBinAddr: 0x10000F9D0, symSize: 0x40 }
  - { offsetInCU: 0x100EA, offset: 0x100EA, size: 0x8, addend: 0x0, symName: __ZNSt3__123__dispatch_copy_or_moveB7v160006INS_17_ClassicAlgPolicyENS_11__copy_loopIS1_EENS_14__copy_trivialEPKcS6_PcEENS_4pairIT2_T4_EES9_T3_SA_, symObjAddr: 0xDA70, symBinAddr: 0x10000FA10, symSize: 0x40 }
  - { offsetInCU: 0x10168, offset: 0x10168, size: 0x8, addend: 0x0, symName: __ZNSt3__121__unwrap_and_dispatchB7v160006INS_10__overloadINS_11__copy_loopINS_17_ClassicAlgPolicyEEENS_14__copy_trivialEEEPKcS8_PcLi0EEENS_4pairIT0_T2_EESB_T1_SC_, symObjAddr: 0xDAB0, symBinAddr: 0x10000FA50, symSize: 0xB0 }
  - { offsetInCU: 0x101F7, offset: 0x101F7, size: 0x8, addend: 0x0, symName: __ZNSt3__114__unwrap_rangeB7v160006IPKcS2_EENS_4pairIT0_S4_EET_S6_, symObjAddr: 0xDB60, symBinAddr: 0x10000FB00, symSize: 0x50 }
  - { offsetInCU: 0x1038C, offset: 0x1038C, size: 0x8, addend: 0x0, symName: __ZNSt3__113__unwrap_iterB7v160006IPcNS_18__unwrap_iter_implIS1_Lb1EEELi0EEEDTclsrT0_8__unwrapclsr3stdE7declvalIT_EEEES5_, symObjAddr: 0xDBF0, symBinAddr: 0x10000FB90, symSize: 0x20 }
  - { offsetInCU: 0x103D0, offset: 0x103D0, size: 0x8, addend: 0x0, symName: __ZNSt3__19make_pairB7v160006IPKcPcEENS_4pairINS_18__unwrap_ref_decayIT_E4typeENS5_IT0_E4typeEEEOS6_OS9_, symObjAddr: 0xDC10, symBinAddr: 0x10000FBB0, symSize: 0x30 }
  - { offsetInCU: 0x1041F, offset: 0x1041F, size: 0x8, addend: 0x0, symName: __ZNSt3__114__rewrap_rangeB7v160006IPKcS2_EET_S3_T0_, symObjAddr: 0xDC40, symBinAddr: 0x10000FBE0, symSize: 0x30 }
  - { offsetInCU: 0x1046B, offset: 0x1046B, size: 0x8, addend: 0x0, symName: __ZNSt3__113__rewrap_iterB7v160006IPcS1_NS_18__unwrap_iter_implIS1_Lb1EEEEET_S4_T0_, symObjAddr: 0xDC70, symBinAddr: 0x10000FC10, symSize: 0x40 }
  - { offsetInCU: 0x104C0, offset: 0x104C0, size: 0x8, addend: 0x0, symName: __ZNSt3__19make_pairB7v160006IPKcS2_EENS_4pairINS_18__unwrap_ref_decayIT_E4typeENS4_IT0_E4typeEEEOS5_OS8_, symObjAddr: 0xDCB0, symBinAddr: 0x10000FC50, symSize: 0x30 }
  - { offsetInCU: 0x1050F, offset: 0x1050F, size: 0x8, addend: 0x0, symName: __ZNSt3__113__unwrap_iterB7v160006IPKcNS_18__unwrap_iter_implIS2_Lb1EEELi0EEEDTclsrT0_8__unwrapclsr3stdE7declvalIT_EEEES6_, symObjAddr: 0xDCE0, symBinAddr: 0x10000FC80, symSize: 0x20 }
  - { offsetInCU: 0x1067A, offset: 0x1067A, size: 0x8, addend: 0x0, symName: __ZNSt3__119__copy_trivial_implB7v160006IKccEENS_4pairIPT_PT0_EES4_S4_S6_, symObjAddr: 0xDD80, symBinAddr: 0x10000FD20, symSize: 0x70 }
  - { offsetInCU: 0x106E2, offset: 0x106E2, size: 0x8, addend: 0x0, symName: __ZNSt3__19make_pairB7v160006IRPKcPcEENS_4pairINS_18__unwrap_ref_decayIT_E4typeENS6_IT0_E4typeEEEOS7_OSA_, symObjAddr: 0xDDF0, symBinAddr: 0x10000FD90, symSize: 0x30 }
  - { offsetInCU: 0x10784, offset: 0x10784, size: 0x8, addend: 0x0, symName: __ZNSt3__113__rewrap_iterB7v160006IPKcS2_NS_18__unwrap_iter_implIS2_Lb1EEEEET_S5_T0_, symObjAddr: 0xDF00, symBinAddr: 0x10000FEA0, symSize: 0x40 }
  - { offsetInCU: 0x107D9, offset: 0x107D9, size: 0x8, addend: 0x0, symName: __ZNSt3__16fill_nB7v160006IPcmcEET_S2_T0_RKT1_, symObjAddr: 0xDFC0, symBinAddr: 0x10000FF60, symSize: 0x40 }
  - { offsetInCU: 0x1083C, offset: 0x1083C, size: 0x8, addend: 0x0, symName: __ZNSt3__18__fill_nB7v160006IPcmcEET_S2_T0_RKT1_, symObjAddr: 0xE000, symBinAddr: 0x10000FFA0, symSize: 0x50 }
  - { offsetInCU: 0x1089F, offset: 0x1089F, size: 0x8, addend: 0x0, symName: __ZNSt3__121__convert_to_integralB7v160006Em, symObjAddr: 0xE050, symBinAddr: 0x10000FFF0, symSize: 0x10 }
  - { offsetInCU: 0x108CB, offset: 0x108CB, size: 0x8, addend: 0x0, symName: __ZNSt3__119__debug_db_insert_cB7v160006INS_6vectorIiNS_9allocatorIiEEEEEEvPT_, symObjAddr: 0xE220, symBinAddr: 0x1000101C0, symSize: 0x10 }
  - { offsetInCU: 0x108FC, offset: 0x108FC, size: 0x8, addend: 0x0, symName: __ZNSt3__118__debug_db_erase_cB7v160006INS_6vectorIiNS_9allocatorIiEEEEEEvPT_, symObjAddr: 0xE4B0, symBinAddr: 0x100010450, symSize: 0x10 }
  - { offsetInCU: 0x1092D, offset: 0x1092D, size: 0x8, addend: 0x0, symName: __ZNSt3__112__to_addressB7v160006IiEEPT_S2_, symObjAddr: 0xE5A0, symBinAddr: 0x100010540, symSize: 0x10 }
  - { offsetInCU: 0x10962, offset: 0x10962, size: 0x8, addend: 0x0, symName: __ZNSt3__119__allocate_at_leastB7v160006INS_9allocatorIiEEEENS_19__allocation_resultINS_16allocator_traitsIT_E7pointerEEERS5_m, symObjAddr: 0xEE20, symBinAddr: 0x100010DC0, symSize: 0x40 }
  - { offsetInCU: 0x109A5, offset: 0x109A5, size: 0x8, addend: 0x0, symName: __ZNSt3__142__uninitialized_allocator_move_if_noexceptB7v160006INS_9allocatorIiEENS_16reverse_iteratorIPiEES5_ivEET1_RT_T0_S9_S6_, symObjAddr: 0xEFB0, symBinAddr: 0x100010F50, symSize: 0x70 }
  - { offsetInCU: 0x10A21, offset: 0x10A21, size: 0x8, addend: 0x0, symName: __ZNSt3__14swapB7v160006IPiEENS_9enable_ifIXaasr21is_move_constructibleIT_EE5valuesr18is_move_assignableIS3_EE5valueEvE4typeERS3_S6_, symObjAddr: 0xF070, symBinAddr: 0x100011010, symSize: 0x40 }
  - { offsetInCU: 0x10A72, offset: 0x10A72, size: 0x8, addend: 0x0, symName: __ZNSt3__125__debug_db_invalidate_allB7v160006INS_6vectorIiNS_9allocatorIiEEEEEEvPT_, symObjAddr: 0xF160, symBinAddr: 0x100011100, symSize: 0x10 }
  - { offsetInCU: 0x10AA3, offset: 0x10AA3, size: 0x8, addend: 0x0, symName: __ZNSt3__14moveB7v160006INS_16reverse_iteratorIPiEES3_EET0_T_S5_S4_, symObjAddr: 0xF170, symBinAddr: 0x100011110, symSize: 0x80 }
  - { offsetInCU: 0x10AFD, offset: 0x10AFD, size: 0x8, addend: 0x0, symName: __ZNSt3__16__moveB7v160006INS_17_ClassicAlgPolicyENS_16reverse_iteratorIPiEES4_S4_EENS_4pairIT0_T2_EES6_T1_S7_, symObjAddr: 0xF1F0, symBinAddr: 0x100011190, symSize: 0x90 }
  - { offsetInCU: 0x10B69, offset: 0x10B69, size: 0x8, addend: 0x0, symName: __ZNSt3__123__dispatch_copy_or_moveB7v160006INS_17_ClassicAlgPolicyENS_11__move_loopIS1_EENS_14__move_trivialENS_16reverse_iteratorIPiEES7_S7_EENS_4pairIT2_T4_EES9_T3_SA_, symObjAddr: 0xF280, symBinAddr: 0x100011220, symSize: 0x90 }
  - { offsetInCU: 0x10BE7, offset: 0x10BE7, size: 0x8, addend: 0x0, symName: __ZNSt3__121__unwrap_and_dispatchB7v160006INS_10__overloadINS_11__move_loopINS_17_ClassicAlgPolicyEEENS_14__move_trivialEEENS_16reverse_iteratorIPiEES9_S9_Li0EEENS_4pairIT0_T2_EESB_T1_SC_, symObjAddr: 0xF310, symBinAddr: 0x1000112B0, symSize: 0x210 }
  - { offsetInCU: 0x10C76, offset: 0x10C76, size: 0x8, addend: 0x0, symName: __ZNSt3__114__unwrap_rangeB7v160006INS_16reverse_iteratorIPiEES3_EENS_4pairIT0_S5_EET_S7_, symObjAddr: 0xF520, symBinAddr: 0x1000114C0, symSize: 0x90 }
  - { offsetInCU: 0x10D96, offset: 0x10D96, size: 0x8, addend: 0x0, symName: __ZNSt3__113__unwrap_iterB7v160006INS_16reverse_iteratorIPiEENS_18__unwrap_iter_implIS3_Lb0EEELi0EEEDTclsrT0_8__unwrapclsr3stdE7declvalIT_EEEES7_, symObjAddr: 0xF650, symBinAddr: 0x1000115F0, symSize: 0x40 }
  - { offsetInCU: 0x10DDA, offset: 0x10DDA, size: 0x8, addend: 0x0, symName: __ZNSt3__19make_pairB7v160006INS_16reverse_iteratorIPiEES3_EENS_4pairINS_18__unwrap_ref_decayIT_E4typeENS5_IT0_E4typeEEEOS6_OS9_, symObjAddr: 0xF690, symBinAddr: 0x100011630, symSize: 0x30 }
  - { offsetInCU: 0x10E29, offset: 0x10E29, size: 0x8, addend: 0x0, symName: __ZNSt3__114__rewrap_rangeB7v160006INS_16reverse_iteratorIPiEES3_EET_S4_T0_, symObjAddr: 0xF6C0, symBinAddr: 0x100011660, symSize: 0x60 }
  - { offsetInCU: 0x10E75, offset: 0x10E75, size: 0x8, addend: 0x0, symName: __ZNSt3__113__rewrap_iterB7v160006INS_16reverse_iteratorIPiEES3_NS_18__unwrap_iter_implIS3_Lb0EEEEET_S6_T0_, symObjAddr: 0xF720, symBinAddr: 0x1000116C0, symSize: 0x70 }
  - { offsetInCU: 0x10ECA, offset: 0x10ECA, size: 0x8, addend: 0x0, symName: __ZNSt3__1neB7v160006IPiS1_EEbRKNS_16reverse_iteratorIT_EERKNS2_IT0_EE, symObjAddr: 0xF790, symBinAddr: 0x100011730, symSize: 0x40 }
  - { offsetInCU: 0x10F82, offset: 0x10F82, size: 0x8, addend: 0x0, symName: __ZNSt3__119__debug_db_insert_cB7v160006INS_6vectorINS1_IiNS_9allocatorIiEEEENS2_IS4_EEEEEEvPT_, symObjAddr: 0xFB80, symBinAddr: 0x100011B20, symSize: 0x10 }
  - { offsetInCU: 0x10FB3, offset: 0x10FB3, size: 0x8, addend: 0x0, symName: __ZNSt3__118__debug_db_erase_cB7v160006INS_6vectorINS1_IiNS_9allocatorIiEEEENS2_IS4_EEEEEEvPT_, symObjAddr: 0xFE10, symBinAddr: 0x100011DB0, symSize: 0x10 }
  - { offsetInCU: 0x10FE4, offset: 0x10FE4, size: 0x8, addend: 0x0, symName: __ZNSt3__112__to_addressB7v160006INS_6vectorIiNS_9allocatorIiEEEEEEPT_S6_, symObjAddr: 0xFF10, symBinAddr: 0x100011EB0, symSize: 0x10 }
  - { offsetInCU: 0x11019, offset: 0x11019, size: 0x8, addend: 0x0, symName: __ZNSt3__122__make_exception_guardB7v160006INS_6vectorIiNS_9allocatorIiEEE16__destroy_vectorEEENS_28__exception_guard_exceptionsIT_EES7_, symObjAddr: 0x101A0, symBinAddr: 0x100012140, symSize: 0x40 }
  - { offsetInCU: 0x1104E, offset: 0x1104E, size: 0x8, addend: 0x0, symName: __ZNSt3__130__uninitialized_allocator_copyB7v160006INS_9allocatorIiEEPiS3_S3_EET2_RT_T0_T1_S4_, symObjAddr: 0x10910, symBinAddr: 0x1000128B0, symSize: 0x100 }
  - { offsetInCU: 0x110EC, offset: 0x110EC, size: 0x8, addend: 0x0, symName: __ZNSt3__122__make_exception_guardB7v160006INS_29_AllocatorDestroyRangeReverseINS_9allocatorIiEEPiEEEENS_28__exception_guard_exceptionsIT_EES7_, symObjAddr: 0x10A10, symBinAddr: 0x1000129B0, symSize: 0x60 }
  - { offsetInCU: 0x11121, offset: 0x11121, size: 0x8, addend: 0x0, symName: __ZNSt3__119__allocator_destroyB7v160006INS_9allocatorIiEENS_16reverse_iteratorIPiEES5_EEvRT_T0_T1_, symObjAddr: 0x10C90, symBinAddr: 0x100012C30, symSize: 0x70 }
  - { offsetInCU: 0x11184, offset: 0x11184, size: 0x8, addend: 0x0, symName: __ZNSt3__112__to_addressB7v160006INS_16reverse_iteratorIPiEEvEENS_5decayIDTclsr19__to_address_helperIT_EE6__callclsr3stdE7declvalIRKS5_EEEEE4typeES7_, symObjAddr: 0x10D00, symBinAddr: 0x100012CA0, symSize: 0x20 }
  - { offsetInCU: 0x111E3, offset: 0x111E3, size: 0x8, addend: 0x0, symName: __ZNSt3__119__allocate_at_leastB7v160006INS_9allocatorINS_6vectorIiNS1_IiEEEEEEEENS_19__allocation_resultINS_16allocator_traitsIT_E7pointerEEERS8_m, symObjAddr: 0x111D0, symBinAddr: 0x100013170, symSize: 0x40 }
  - { offsetInCU: 0x11226, offset: 0x11226, size: 0x8, addend: 0x0, symName: __ZNSt3__142__uninitialized_allocator_move_if_noexceptB7v160006INS_9allocatorINS_6vectorIiNS1_IiEEEEEENS_16reverse_iteratorIPS4_EES8_S8_EET2_RT_T0_T1_S9_, symObjAddr: 0x11360, symBinAddr: 0x100013300, symSize: 0x180 }
  - { offsetInCU: 0x112C5, offset: 0x112C5, size: 0x8, addend: 0x0, symName: __ZNSt3__14swapB7v160006IPNS_6vectorIiNS_9allocatorIiEEEEEENS_9enable_ifIXaasr21is_move_constructibleIT_EE5valuesr18is_move_assignableIS7_EE5valueEvE4typeERS7_SA_, symObjAddr: 0x11530, symBinAddr: 0x1000134D0, symSize: 0x40 }
  - { offsetInCU: 0x11316, offset: 0x11316, size: 0x8, addend: 0x0, symName: __ZNSt3__125__debug_db_invalidate_allB7v160006INS_6vectorINS1_IiNS_9allocatorIiEEEENS2_IS4_EEEEEEvPT_, symObjAddr: 0x11610, symBinAddr: 0x1000135B0, symSize: 0x10 }
  - { offsetInCU: 0x11347, offset: 0x11347, size: 0x8, addend: 0x0, symName: __ZNSt3__122__make_exception_guardB7v160006INS_29_AllocatorDestroyRangeReverseINS_9allocatorINS_6vectorIiNS2_IiEEEEEENS_16reverse_iteratorIPS5_EEEEEENS_28__exception_guard_exceptionsIT_EESC_, symObjAddr: 0x11620, symBinAddr: 0x1000135C0, symSize: 0x60 }
  - { offsetInCU: 0x1137C, offset: 0x1137C, size: 0x8, addend: 0x0, symName: __ZNSt3__1neB7v160006IPNS_6vectorIiNS_9allocatorIiEEEES5_EEbRKNS_16reverse_iteratorIT_EERKNS6_IT0_EE, symObjAddr: 0x116C0, symBinAddr: 0x100013660, symSize: 0x40 }
  - { offsetInCU: 0x113C8, offset: 0x113C8, size: 0x8, addend: 0x0, symName: __ZNSt3__112__to_addressB7v160006INS_16reverse_iteratorIPNS_6vectorIiNS_9allocatorIiEEEEEEvEENS_5decayIDTclsr19__to_address_helperIT_EE6__callclsr3stdE7declvalIRKS9_EEEEE4typeESB_, symObjAddr: 0x11730, symBinAddr: 0x1000136D0, symSize: 0x20 }
  - { offsetInCU: 0x113FE, offset: 0x113FE, size: 0x8, addend: 0x0, symName: __ZNSt3__115__debug_db_swapB7v160006INS_6vectorIiNS_9allocatorIiEEEEEEvPT_S6_, symObjAddr: 0x119D0, symBinAddr: 0x100013970, symSize: 0x10 }
  - { offsetInCU: 0x11466, offset: 0x11466, size: 0x8, addend: 0x0, symName: __ZNSt3__119__allocator_destroyB7v160006INS_9allocatorINS_6vectorIiNS1_IiEEEEEENS_16reverse_iteratorINS6_IPS4_EEEES9_EEvRT_T0_T1_, symObjAddr: 0x11B70, symBinAddr: 0x100013B10, symSize: 0x70 }
  - { offsetInCU: 0x114C9, offset: 0x114C9, size: 0x8, addend: 0x0, symName: __ZNSt3__1neB7v160006INS_16reverse_iteratorIPNS_6vectorIiNS_9allocatorIiEEEEEES7_EEbRKNS1_IT_EERKNS1_IT0_EE, symObjAddr: 0x11C10, symBinAddr: 0x100013BB0, symSize: 0x50 }
  - { offsetInCU: 0x11515, offset: 0x11515, size: 0x8, addend: 0x0, symName: __ZNSt3__112__to_addressB7v160006INS_16reverse_iteratorINS1_IPNS_6vectorIiNS_9allocatorIiEEEEEEEEvEENS_5decayIDTclsr19__to_address_helperIT_EE6__callclsr3stdE7declvalIRKSA_EEEEE4typeESC_, symObjAddr: 0x11C60, symBinAddr: 0x100013C00, symSize: 0x20 }
  - { offsetInCU: 0x11677, offset: 0x11677, size: 0x8, addend: 0x0, symName: __ZNSt3__122__str_find_last_not_ofB7v160006IcmNS_11char_traitsIcEELm18446744073709551615EEET0_PKT_S3_S4_S3_, symObjAddr: 0x12080, symBinAddr: 0x100014020, symSize: 0xB0 }
  - { offsetInCU: 0x117F1, offset: 0x117F1, size: 0x8, addend: 0x0, symName: __ZNSt3__122__make_exception_guardB7v160006INS_6vectorI11TreeDiagramNS_9allocatorIS2_EEE16__destroy_vectorEEENS_28__exception_guard_exceptionsIT_EES8_, symObjAddr: 0x12890, symBinAddr: 0x100014830, symSize: 0x40 }
  - { offsetInCU: 0x11826, offset: 0x11826, size: 0x8, addend: 0x0, symName: __ZNSt3__119__debug_db_insert_cB7v160006INS_6vectorI11TreeDiagramNS_9allocatorIS2_EEEEEEvPT_, symObjAddr: 0x12900, symBinAddr: 0x1000148A0, symSize: 0x10 }
  - { offsetInCU: 0x11857, offset: 0x11857, size: 0x8, addend: 0x0, symName: __ZNSt3__119__allocate_at_leastB7v160006INS_9allocatorI11TreeDiagramEEEENS_19__allocation_resultINS_16allocator_traitsIT_E7pointerEEERS6_m, symObjAddr: 0x12C80, symBinAddr: 0x100014C20, symSize: 0x40 }
  - { offsetInCU: 0x1189A, offset: 0x1189A, size: 0x8, addend: 0x0, symName: __ZNSt3__112__to_addressB7v160006I11TreeDiagramEEPT_S3_, symObjAddr: 0x12F60, symBinAddr: 0x100014F00, symSize: 0x10 }
  - { offsetInCU: 0x118CF, offset: 0x118CF, size: 0x8, addend: 0x0, symName: __ZNSt3__130__uninitialized_allocator_copyB7v160006INS_9allocatorI11TreeDiagramEEPKS2_S5_PS2_EET2_RT_T0_T1_S7_, symObjAddr: 0x12FF0, symBinAddr: 0x100014F90, symSize: 0x100 }
  - { offsetInCU: 0x1196D, offset: 0x1196D, size: 0x8, addend: 0x0, symName: __ZNSt3__122__make_exception_guardB7v160006INS_29_AllocatorDestroyRangeReverseINS_9allocatorI11TreeDiagramEEPS3_EEEENS_28__exception_guard_exceptionsIT_EES8_, symObjAddr: 0x13150, symBinAddr: 0x1000150F0, symSize: 0x60 }
  - { offsetInCU: 0x119A2, offset: 0x119A2, size: 0x8, addend: 0x0, symName: __ZNSt3__119__allocator_destroyB7v160006INS_9allocatorI11TreeDiagramEENS_16reverse_iteratorIPS2_EES6_EEvRT_T0_T1_, symObjAddr: 0x133E0, symBinAddr: 0x100015380, symSize: 0x70 }
  - { offsetInCU: 0x11A05, offset: 0x11A05, size: 0x8, addend: 0x0, symName: __ZNSt3__1neB7v160006IP11TreeDiagramS2_EEbRKNS_16reverse_iteratorIT_EERKNS3_IT0_EE, symObjAddr: 0x13480, symBinAddr: 0x100015420, symSize: 0x40 }
  - { offsetInCU: 0x11A51, offset: 0x11A51, size: 0x8, addend: 0x0, symName: __ZNSt3__112__to_addressB7v160006INS_16reverse_iteratorIP11TreeDiagramEEvEENS_5decayIDTclsr19__to_address_helperIT_EE6__callclsr3stdE7declvalIRKS6_EEEEE4typeES8_, symObjAddr: 0x134F0, symBinAddr: 0x100015490, symSize: 0x20 }
  - { offsetInCU: 0x11AB0, offset: 0x11AB0, size: 0x8, addend: 0x0, symName: __ZNSt3__118__debug_db_erase_cB7v160006INS_6vectorI11TreeDiagramNS_9allocatorIS2_EEEEEEvPT_, symObjAddr: 0x137D0, symBinAddr: 0x100015770, symSize: 0x10 }
  - { offsetInCU: 0x11AE1, offset: 0x11AE1, size: 0x8, addend: 0x0, symName: __ZNSt3__142__uninitialized_allocator_move_if_noexceptB7v160006INS_9allocatorI11TreeDiagramEENS_16reverse_iteratorIPS2_EES6_S6_EET2_RT_T0_T1_S7_, symObjAddr: 0x13F20, symBinAddr: 0x100015EC0, symSize: 0x170 }
  - { offsetInCU: 0x11B80, offset: 0x11B80, size: 0x8, addend: 0x0, symName: __ZNSt3__14swapB7v160006IP11TreeDiagramEENS_9enable_ifIXaasr21is_move_constructibleIT_EE5valuesr18is_move_assignableIS4_EE5valueEvE4typeERS4_S7_, symObjAddr: 0x14090, symBinAddr: 0x100016030, symSize: 0x40 }
  - { offsetInCU: 0x11BD1, offset: 0x11BD1, size: 0x8, addend: 0x0, symName: __ZNSt3__125__debug_db_invalidate_allB7v160006INS_6vectorI11TreeDiagramNS_9allocatorIS2_EEEEEEvPT_, symObjAddr: 0x140D0, symBinAddr: 0x100016070, symSize: 0x10 }
  - { offsetInCU: 0x11C02, offset: 0x11C02, size: 0x8, addend: 0x0, symName: __ZNSt3__122__make_exception_guardB7v160006INS_29_AllocatorDestroyRangeReverseINS_9allocatorI11TreeDiagramEENS_16reverse_iteratorIPS3_EEEEEENS_28__exception_guard_exceptionsIT_EESA_, symObjAddr: 0x140E0, symBinAddr: 0x100016080, symSize: 0x60 }
  - { offsetInCU: 0x11C37, offset: 0x11C37, size: 0x8, addend: 0x0, symName: __ZNSt3__119__allocator_destroyB7v160006INS_9allocatorI11TreeDiagramEENS_16reverse_iteratorINS4_IPS2_EEEES7_EEvRT_T0_T1_, symObjAddr: 0x143A0, symBinAddr: 0x100016340, symSize: 0x70 }
  - { offsetInCU: 0x11C9A, offset: 0x11C9A, size: 0x8, addend: 0x0, symName: __ZNSt3__1neB7v160006INS_16reverse_iteratorIP11TreeDiagramEES4_EEbRKNS1_IT_EERKNS1_IT0_EE, symObjAddr: 0x14440, symBinAddr: 0x1000163E0, symSize: 0x50 }
  - { offsetInCU: 0x11CE6, offset: 0x11CE6, size: 0x8, addend: 0x0, symName: __ZNSt3__112__to_addressB7v160006INS_16reverse_iteratorINS1_IP11TreeDiagramEEEEvEENS_5decayIDTclsr19__to_address_helperIT_EE6__callclsr3stdE7declvalIRKS7_EEEEE4typeES9_, symObjAddr: 0x14490, symBinAddr: 0x100016430, symSize: 0x20 }
  - { offsetInCU: 0x1237D, offset: 0x1237D, size: 0x8, addend: 0x0, symName: __ZSt28__throw_bad_array_new_lengthB7v160006v, symObjAddr: 0xA640, symBinAddr: 0x10000C5E0, symSize: 0x40 }
  - { offsetInCU: 0x12970, offset: 0x12970, size: 0x8, addend: 0x0, symName: __ZNSt3__16vectorINS_12basic_stringIcNS_11char_traitsIcEENS_9allocatorIcEEEENS4_IS6_EEE26__swap_out_circular_bufferERNS_14__split_bufferIS6_RS7_EEPS6_, symObjAddr: 0x9B40, symBinAddr: 0x10000BAE0, symSize: 0x170 }
  - { offsetInCU: 0x12AAE, offset: 0x12AAE, size: 0x8, addend: 0x0, symName: __ZNKSt3__16chrono15__duration_castINS0_8durationIxNS_5ratioILl1ELl1000000000EEEEENS2_IdNS3_ILl1ELl1EEEEES4_Lb1ELb0EEclB7v160006ERKS5_, symObjAddr: 0xBAD0, symBinAddr: 0x10000DA70, symSize: 0x50 }
  - { offsetInCU: 0x12B0B, offset: 0x12B0B, size: 0x8, addend: 0x0, symName: __ZNSt3__16vectorINS_12basic_stringIcNS_11char_traitsIcEENS_9allocatorIcEEEENS4_IS6_EEE26__swap_out_circular_bufferERNS_14__split_bufferIS6_RS7_EE, symObjAddr: 0xCDA0, symBinAddr: 0x10000ED40, symSize: 0x130 }
  - { offsetInCU: 0x12FBB, offset: 0x12FBB, size: 0x8, addend: 0x0, symName: __ZNSt3__16vectorIiNS_9allocatorIiEEE26__swap_out_circular_bufferERNS_14__split_bufferIiRS2_EE, symObjAddr: 0xEAC0, symBinAddr: 0x100010A60, symSize: 0x130 }
  - { offsetInCU: 0x131C5, offset: 0x131C5, size: 0x8, addend: 0x0, symName: __ZNSt3__16vectorINS0_IiNS_9allocatorIiEEEENS1_IS3_EEE26__swap_out_circular_bufferERNS_14__split_bufferIS3_RS4_EE, symObjAddr: 0x10E80, symBinAddr: 0x100012E20, symSize: 0x130 }
  - { offsetInCU: 0x132B2, offset: 0x132B2, size: 0x8, addend: 0x0, symName: __ZNSt3__16vectorI11TreeDiagramNS_9allocatorIS1_EEE26__swap_out_circular_bufferERNS_14__split_bufferIS1_RS3_EE, symObjAddr: 0x13BE0, symBinAddr: 0x100015B80, symSize: 0x130 }
  - { offsetInCU: 0x155D1, offset: 0x155D1, size: 0x8, addend: 0x0, symName: __Z26generateCompleteBinaryTreei, symObjAddr: 0x0, symBinAddr: 0x100001FA0, symSize: 0x110 }
  - { offsetInCU: 0x1565F, offset: 0x1565F, size: 0x8, addend: 0x0, symName: __ZNSt3__16vectorINS_12basic_stringIcNS_11char_traitsIcEENS_9allocatorIcEEEENS4_IS6_EEEC1B7v160006Ev, symObjAddr: 0x110, symBinAddr: 0x1000020B0, symSize: 0x20 }
  - { offsetInCU: 0x15689, offset: 0x15689, size: 0x8, addend: 0x0, symName: __ZNSt3__112basic_stringIcNS_11char_traitsIcEENS_9allocatorIcEEEC1B7v160006Ev, symObjAddr: 0x130, symBinAddr: 0x1000020D0, symSize: 0x20 }
  - { offsetInCU: 0x156B3, offset: 0x156B3, size: 0x8, addend: 0x0, symName: __ZNSt3__16vectorINS_12basic_stringIcNS_11char_traitsIcEENS_9allocatorIcEEEENS4_IS6_EEE9push_backB7v160006ERKS6_, symObjAddr: 0x150, symBinAddr: 0x1000020F0, symSize: 0x60 }
  - { offsetInCU: 0x156EA, offset: 0x156EA, size: 0x8, addend: 0x0, symName: __ZNSt3__16vectorINS_12basic_stringIcNS_11char_traitsIcEENS_9allocatorIcEEEENS4_IS6_EEED1B7v160006Ev, symObjAddr: 0x1B0, symBinAddr: 0x100002150, symSize: 0x20 }
  - { offsetInCU: 0x15713, offset: 0x15713, size: 0x8, addend: 0x0, symName: __Z15alternating_sumRKNSt3__112basic_stringIcNS_11char_traitsIcEENS_9allocatorIcEEEE, symObjAddr: 0x1D0, symBinAddr: 0x100002170, symSize: 0xB0 }
  - { offsetInCU: 0x1576A, offset: 0x1576A, size: 0x8, addend: 0x0, symName: __ZNKSt3__112basic_stringIcNS_11char_traitsIcEENS_9allocatorIcEEE6lengthB7v160006Ev, symObjAddr: 0x280, symBinAddr: 0x100002220, symSize: 0x20 }
  - { offsetInCU: 0x15790, offset: 0x15790, size: 0x8, addend: 0x0, symName: __ZNKSt3__112basic_stringIcNS_11char_traitsIcEENS_9allocatorIcEEEixB7v160006Em, symObjAddr: 0x2A0, symBinAddr: 0x100002240, symSize: 0x30 }
  - { offsetInCU: 0x157C4, offset: 0x157C4, size: 0x8, addend: 0x0, symName: __Z23is_in_oriented_subgroupRK11TreeDiagram, symObjAddr: 0x2D0, symBinAddr: 0x100002270, symSize: 0xD0 }
  - { offsetInCU: 0x15837, offset: 0x15837, size: 0x8, addend: 0x0, symName: __ZNK11TreeDiagram6getTopEv, symObjAddr: 0x3A0, symBinAddr: 0x100002340, symSize: 0x10 }
  - { offsetInCU: 0x1585D, offset: 0x1585D, size: 0x8, addend: 0x0, symName: __ZNKSt3__16vectorINS_12basic_stringIcNS_11char_traitsIcEENS_9allocatorIcEEEENS4_IS6_EEE4sizeB7v160006Ev, symObjAddr: 0x3B0, symBinAddr: 0x100002350, symSize: 0x30 }
  - { offsetInCU: 0x15883, offset: 0x15883, size: 0x8, addend: 0x0, symName: __ZNKSt3__16vectorINS_12basic_stringIcNS_11char_traitsIcEENS_9allocatorIcEEEENS4_IS6_EEEixB7v160006Em, symObjAddr: 0x3E0, symBinAddr: 0x100002380, symSize: 0x20 }
  - { offsetInCU: 0x158BA, offset: 0x158BA, size: 0x8, addend: 0x0, symName: __ZNK11TreeDiagram9getBottomEv, symObjAddr: 0x400, symBinAddr: 0x1000023A0, symSize: 0x20 }
  - { offsetInCU: 0x158DF, offset: 0x158DF, size: 0x8, addend: 0x0, symName: __Z26find_longest_string_lengthRKNSt3__16vectorINS_12basic_stringIcNS_11char_traitsIcEENS_9allocatorIcEEEENS4_IS6_EEEESA_SA_SA_, symObjAddr: 0x420, symBinAddr: 0x1000023C0, symSize: 0x260 }
  - { offsetInCU: 0x15A97, offset: 0x15A97, size: 0x8, addend: 0x0, symName: __ZNKSt3__16vectorINS_12basic_stringIcNS_11char_traitsIcEENS_9allocatorIcEEEENS4_IS6_EEE5beginB7v160006Ev, symObjAddr: 0x680, symBinAddr: 0x100002620, symSize: 0x30 }
  - { offsetInCU: 0x15ABF, offset: 0x15ABF, size: 0x8, addend: 0x0, symName: __ZNKSt3__16vectorINS_12basic_stringIcNS_11char_traitsIcEENS_9allocatorIcEEEENS4_IS6_EEE3endB7v160006Ev, symObjAddr: 0x6B0, symBinAddr: 0x100002650, symSize: 0x30 }
  - { offsetInCU: 0x15AE7, offset: 0x15AE7, size: 0x8, addend: 0x0, symName: __ZNKSt3__111__wrap_iterIPKNS_12basic_stringIcNS_11char_traitsIcEENS_9allocatorIcEEEEEdeB7v160006Ev, symObjAddr: 0x710, symBinAddr: 0x1000026B0, symSize: 0x20 }
  - { offsetInCU: 0x15B0D, offset: 0x15B0D, size: 0x8, addend: 0x0, symName: __ZNSt3__111__wrap_iterIPKNS_12basic_stringIcNS_11char_traitsIcEENS_9allocatorIcEEEEEppB7v160006Ev, symObjAddr: 0x760, symBinAddr: 0x100002700, symSize: 0x20 }
  - { offsetInCU: 0x15B32, offset: 0x15B32, size: 0x8, addend: 0x0, symName: __Z14findCommonTreeRK11TreeDiagramS1_i, symObjAddr: 0x780, symBinAddr: 0x100002720, symSize: 0x800 }
  - { offsetInCU: 0x15CCC, offset: 0x15CCC, size: 0x8, addend: 0x0, symName: __ZNSt3__16vectorINS_12basic_stringIcNS_11char_traitsIcEENS_9allocatorIcEEEENS4_IS6_EEEC1ERKS8_, symObjAddr: 0xF80, symBinAddr: 0x100002F20, symSize: 0x30 }
  - { offsetInCU: 0x15D20, offset: 0x15D20, size: 0x8, addend: 0x0, symName: __ZNSt3__14pairI11TreeDiagramS1_EC1B7v160006ILb1ELPv0EEERKS1_S6_, symObjAddr: 0x1040, symBinAddr: 0x100002FE0, symSize: 0x30 }
  - { offsetInCU: 0x15D76, offset: 0x15D76, size: 0x8, addend: 0x0, symName: __ZNK11TreeDiagram15getNumberLeavesEv, symObjAddr: 0x1070, symBinAddr: 0x100003010, symSize: 0x20 }
  - { offsetInCU: 0x15D9C, offset: 0x15D9C, size: 0x8, addend: 0x0, symName: __ZNSt3__16vectorINS_12basic_stringIcNS_11char_traitsIcEENS_9allocatorIcEEEENS4_IS6_EEEaSB7v160006EOS8_, symObjAddr: 0x10C0, symBinAddr: 0x100003060, symSize: 0x30 }
  - { offsetInCU: 0x15DD3, offset: 0x15DD3, size: 0x8, addend: 0x0, symName: __ZNSt3__16vectorINS_12basic_stringIcNS_11char_traitsIcEENS_9allocatorIcEEEENS4_IS6_EEEixB7v160006Em, symObjAddr: 0x10F0, symBinAddr: 0x100003090, symSize: 0x20 }
  - { offsetInCU: 0x15E0A, offset: 0x15E0A, size: 0x8, addend: 0x0, symName: __ZNSt3__16vectorINS_12basic_stringIcNS_11char_traitsIcEENS_9allocatorIcEEEENS4_IS6_EEE9push_backB7v160006EOS6_, symObjAddr: 0x1110, symBinAddr: 0x1000030B0, symSize: 0x60 }
  - { offsetInCU: 0x15E41, offset: 0x15E41, size: 0x8, addend: 0x0, symName: __ZN11TreeDiagramC1ERKNSt3__16vectorINS0_12basic_stringIcNS0_11char_traitsIcEENS0_9allocatorIcEEEENS5_IS7_EEEESB_, symObjAddr: 0x1280, symBinAddr: 0x100003220, symSize: 0x30 }
  - { offsetInCU: 0x15E87, offset: 0x15E87, size: 0x8, addend: 0x0, symName: __ZNSt3__113basic_ostreamIcNS_11char_traitsIcEEElsB7v160006EPFRS3_S4_E, symObjAddr: 0x12F0, symBinAddr: 0x100003290, symSize: 0x20 }
  - { offsetInCU: 0x15EBB, offset: 0x15EBB, size: 0x8, addend: 0x0, symName: __ZNSt3__14pairI11TreeDiagramS1_EC1B7v160006IRS1_S4_LPv0EEEOT_OT0_, symObjAddr: 0x1360, symBinAddr: 0x100003300, symSize: 0x30 }
  - { offsetInCU: 0x15F19, offset: 0x15F19, size: 0x8, addend: 0x0, symName: __ZN11TreeDiagramD1Ev, symObjAddr: 0x1390, symBinAddr: 0x100003330, symSize: 0x20 }
  - { offsetInCU: 0x15F44, offset: 0x15F44, size: 0x8, addend: 0x0, symName: __Z26multiplicationTreeDiagramsRK11TreeDiagramS1_i, symObjAddr: 0x13B0, symBinAddr: 0x100003350, symSize: 0x8F0 }
  - { offsetInCU: 0x16068, offset: 0x16068, size: 0x8, addend: 0x0, symName: __ZN11TreeDiagramC1ERKS_, symObjAddr: 0x1CA0, symBinAddr: 0x100003C40, symSize: 0x30 }
  - { offsetInCU: 0x160A2, offset: 0x160A2, size: 0x8, addend: 0x0, symName: __ZNSt3__112basic_stringIcNS_11char_traitsIcEENS_9allocatorIcEEEC1B7v160006IDnEEPKc, symObjAddr: 0x1CD0, symBinAddr: 0x100003C70, symSize: 0x30 }
  - { offsetInCU: 0x160E0, offset: 0x160E0, size: 0x8, addend: 0x0, symName: __ZNSt3__16vectorINS_12basic_stringIcNS_11char_traitsIcEENS_9allocatorIcEEEENS4_IS6_EEEC1B7v160006ESt16initializer_listIS6_E, symObjAddr: 0x1D00, symBinAddr: 0x100003CA0, symSize: 0x30 }
  - { offsetInCU: 0x1611B, offset: 0x1611B, size: 0x8, addend: 0x0, symName: __ZN11TreeDiagram17reduceTreeDiagramERKS_, symObjAddr: 0x1D30, symBinAddr: 0x100003CD0, symSize: 0x8E0 }
  - { offsetInCU: 0x161A0, offset: 0x161A0, size: 0x8, addend: 0x0, symName: __ZN11TreeDiagramaSEOS_, symObjAddr: 0x2610, symBinAddr: 0x1000045B0, symSize: 0x40 }
  - { offsetInCU: 0x161D1, offset: 0x161D1, size: 0x8, addend: 0x0, symName: __ZNSt3__14pairI11TreeDiagramS1_ED1Ev, symObjAddr: 0x2650, symBinAddr: 0x1000045F0, symSize: 0x20 }
  - { offsetInCU: 0x161FC, offset: 0x161FC, size: 0x8, addend: 0x0, symName: __Z24multiplyManyTreeDiagramsRKNSt3__16vectorI11TreeDiagramNS_9allocatorIS1_EEEEi, symObjAddr: 0x2670, symBinAddr: 0x100004610, symSize: 0x520 }
  - { offsetInCU: 0x1627A, offset: 0x1627A, size: 0x8, addend: 0x0, symName: __ZNKSt3__16vectorI11TreeDiagramNS_9allocatorIS1_EEE4sizeB7v160006Ev, symObjAddr: 0x2B90, symBinAddr: 0x100004B30, symSize: 0x30 }
  - { offsetInCU: 0x162A0, offset: 0x162A0, size: 0x8, addend: 0x0, symName: __ZN11TreeDiagramC1EOS_, symObjAddr: 0x2BC0, symBinAddr: 0x100004B60, symSize: 0x30 }
  - { offsetInCU: 0x162D5, offset: 0x162D5, size: 0x8, addend: 0x0, symName: __ZNKSt3__16vectorI11TreeDiagramNS_9allocatorIS1_EEEixB7v160006Em, symObjAddr: 0x2BF0, symBinAddr: 0x100004B90, symSize: 0x20 }
  - { offsetInCU: 0x1630B, offset: 0x1630B, size: 0x8, addend: 0x0, symName: __Z17generateSequencesii, symObjAddr: 0x2C10, symBinAddr: 0x100004BB0, symSize: 0x2E0 }
  - { offsetInCU: 0x163EF, offset: 0x163EF, size: 0x8, addend: 0x0, symName: __ZNSt3__16vectorIiNS_9allocatorIiEEEC1B7v160006Ev, symObjAddr: 0x2EF0, symBinAddr: 0x100004E90, symSize: 0x20 }
  - { offsetInCU: 0x16419, offset: 0x16419, size: 0x8, addend: 0x0, symName: __ZNSt3__16vectorIiNS_9allocatorIiEEE9push_backB7v160006ERKi, symObjAddr: 0x2F10, symBinAddr: 0x100004EB0, symSize: 0x60 }
  - { offsetInCU: 0x16450, offset: 0x16450, size: 0x8, addend: 0x0, symName: __ZNSt3__16vectorINS0_IiNS_9allocatorIiEEEENS1_IS3_EEEC1B7v160006Ev, symObjAddr: 0x2F70, symBinAddr: 0x100004F10, symSize: 0x20 }
  - { offsetInCU: 0x1647A, offset: 0x1647A, size: 0x8, addend: 0x0, symName: __ZNSt3__16vectorIiNS_9allocatorIiEEEC1EmRKi, symObjAddr: 0x2F90, symBinAddr: 0x100004F30, symSize: 0x30 }
  - { offsetInCU: 0x164C4, offset: 0x164C4, size: 0x8, addend: 0x0, symName: __ZNSt3__16vectorIiNS_9allocatorIiEEEixB7v160006Em, symObjAddr: 0x2FC0, symBinAddr: 0x100004F60, symSize: 0x20 }
  - { offsetInCU: 0x164FB, offset: 0x164FB, size: 0x8, addend: 0x0, symName: __ZNSt3__16vectorINS0_IiNS_9allocatorIiEEEENS1_IS3_EEE9push_backB7v160006ERKS3_, symObjAddr: 0x2FE0, symBinAddr: 0x100004F80, symSize: 0x60 }
  - { offsetInCU: 0x16532, offset: 0x16532, size: 0x8, addend: 0x0, symName: __ZNKSt3__16vectorIiNS_9allocatorIiEEE4sizeB7v160006Ev, symObjAddr: 0x3040, symBinAddr: 0x100004FE0, symSize: 0x20 }
  - { offsetInCU: 0x16558, offset: 0x16558, size: 0x8, addend: 0x0, symName: __ZNSt3__16vectorIiNS_9allocatorIiEEED1B7v160006Ev, symObjAddr: 0x3060, symBinAddr: 0x100005000, symSize: 0x20 }
  - { offsetInCU: 0x16582, offset: 0x16582, size: 0x8, addend: 0x0, symName: __ZNSt3__16vectorINS0_IiNS_9allocatorIiEEEENS1_IS3_EEED1B7v160006Ev, symObjAddr: 0x3080, symBinAddr: 0x100005020, symSize: 0x20 }
  - { offsetInCU: 0x165AB, offset: 0x165AB, size: 0x8, addend: 0x0, symName: __Z20find_nonzero_indicesRKNSt3__16vectorIiNS_9allocatorIiEEEE, symObjAddr: 0x30A0, symBinAddr: 0x100005040, symSize: 0xD0 }
  - { offsetInCU: 0x165FF, offset: 0x165FF, size: 0x8, addend: 0x0, symName: __ZNKSt3__16vectorIiNS_9allocatorIiEEEixB7v160006Em, symObjAddr: 0x3170, symBinAddr: 0x100005110, symSize: 0x20 }
  - { offsetInCU: 0x16635, offset: 0x16635, size: 0x8, addend: 0x0, symName: __Z20find_string_in_arrayRKNSt3__16vectorINS_12basic_stringIcNS_11char_traitsIcEENS_9allocatorIcEEEENS4_IS6_EEEERKS6_, symObjAddr: 0x3190, symBinAddr: 0x100005130, symSize: 0xC0 }
  - { offsetInCU: 0x1668F, offset: 0x1668F, size: 0x8, addend: 0x0, symName: __Z22remove_trailing_zeroesRKNSt3__112basic_stringIcNS_11char_traitsIcEENS_9allocatorIcEEEE, symObjAddr: 0x33C0, symBinAddr: 0x100005360, symSize: 0x80 }
  - { offsetInCU: 0x166CD, offset: 0x166CD, size: 0x8, addend: 0x0, symName: __ZNKSt3__112basic_stringIcNS_11char_traitsIcEENS_9allocatorIcEEE16find_last_not_ofB7v160006Ecm, symObjAddr: 0x3440, symBinAddr: 0x1000053E0, symSize: 0x50 }
  - { offsetInCU: 0x16713, offset: 0x16713, size: 0x8, addend: 0x0, symName: __ZNKSt3__112basic_stringIcNS_11char_traitsIcEENS_9allocatorIcEEE6substrB7v160006Emm, symObjAddr: 0x3490, symBinAddr: 0x100005430, symSize: 0x70 }
  - { offsetInCU: 0x16756, offset: 0x16756, size: 0x8, addend: 0x0, symName: __Z25action_on_dyadic_rationalRK11TreeDiagramRNSt3__112basic_stringIcNS2_11char_traitsIcEENS2_9allocatorIcEEEE, symObjAddr: 0x3500, symBinAddr: 0x1000054A0, symSize: 0x1070 }
  - { offsetInCU: 0x16845, offset: 0x16845, size: 0x8, addend: 0x0, symName: __ZNSt3__112basic_stringIcNS_11char_traitsIcEENS_9allocatorIcEEEaSB7v160006EOS5_, symObjAddr: 0x4570, symBinAddr: 0x100006510, symSize: 0x30 }
  - { offsetInCU: 0x1687A, offset: 0x1687A, size: 0x8, addend: 0x0, symName: __ZNSt3__112basic_stringIcNS_11char_traitsIcEENS_9allocatorIcEEEC1B7v160006Emc, symObjAddr: 0x45A0, symBinAddr: 0x100006540, symSize: 0x30 }
  - { offsetInCU: 0x168C1, offset: 0x168C1, size: 0x8, addend: 0x0, symName: __Z24is_in_parabolic_subgroupRK11TreeDiagramNSt3__112basic_stringIcNS2_11char_traitsIcEENS2_9allocatorIcEEEE, symObjAddr: 0x45D0, symBinAddr: 0x100006570, symSize: 0x150 }
  - { offsetInCU: 0x1690F, offset: 0x1690F, size: 0x8, addend: 0x0, symName: __Z16find_normal_form11TreeDiagram, symObjAddr: 0x4720, symBinAddr: 0x1000066C0, symSize: 0x910 }
  - { offsetInCU: 0x16A19, offset: 0x16A19, size: 0x8, addend: 0x0, symName: __ZNKSt3__112basic_stringIcNS_11char_traitsIcEENS_9allocatorIcEEE4sizeB7v160006Ev, symObjAddr: 0x5030, symBinAddr: 0x100006FD0, symSize: 0x50 }
  - { offsetInCU: 0x16A3F, offset: 0x16A3F, size: 0x8, addend: 0x0, symName: __ZNSt3__112basic_stringIcNS_11char_traitsIcEENS_9allocatorIcEEE4backB7v160006Ev, symObjAddr: 0x5080, symBinAddr: 0x100007020, symSize: 0x40 }
  - { offsetInCU: 0x16A65, offset: 0x16A65, size: 0x8, addend: 0x0, symName: __ZNKSt3__112basic_stringIcNS_11char_traitsIcEENS_9allocatorIcEEE12find_last_ofB7v160006Ecm, symObjAddr: 0x50C0, symBinAddr: 0x100007060, symSize: 0x30 }
  - { offsetInCU: 0x16AAB, offset: 0x16AAB, size: 0x8, addend: 0x0, symName: __ZNKSt3__16vectorIiNS_9allocatorIiEEE5emptyB7v160006Ev, symObjAddr: 0x50F0, symBinAddr: 0x100007090, symSize: 0x20 }
  - { offsetInCU: 0x16AD1, offset: 0x16AD1, size: 0x8, addend: 0x0, symName: __ZNSt3__16vectorIiNS_9allocatorIiEEE4backB7v160006Ev, symObjAddr: 0x5110, symBinAddr: 0x1000070B0, symSize: 0x20 }
  - { offsetInCU: 0x16AF7, offset: 0x16AF7, size: 0x8, addend: 0x0, symName: __ZNSt3__16vectorIiNS_9allocatorIiEEE6resizeEm, symObjAddr: 0x5130, symBinAddr: 0x1000070D0, symSize: 0x80 }
  - { offsetInCU: 0x16B3C, offset: 0x16B3C, size: 0x8, addend: 0x0, symName: __Z12print_arraysRKNSt3__14pairINS_6vectorIiNS_9allocatorIiEEEES4_EE, symObjAddr: 0x51F0, symBinAddr: 0x100007190, symSize: 0x170 }
  - { offsetInCU: 0x16C0C, offset: 0x16C0C, size: 0x8, addend: 0x0, symName: __ZNKSt3__16vectorIiNS_9allocatorIiEEE5beginB7v160006Ev, symObjAddr: 0x5360, symBinAddr: 0x100007300, symSize: 0x30 }
  - { offsetInCU: 0x16C34, offset: 0x16C34, size: 0x8, addend: 0x0, symName: __ZNKSt3__16vectorIiNS_9allocatorIiEEE3endB7v160006Ev, symObjAddr: 0x5390, symBinAddr: 0x100007330, symSize: 0x30 }
  - { offsetInCU: 0x16C5C, offset: 0x16C5C, size: 0x8, addend: 0x0, symName: __ZNKSt3__111__wrap_iterIPKiEdeB7v160006Ev, symObjAddr: 0x53F0, symBinAddr: 0x100007390, symSize: 0x20 }
  - { offsetInCU: 0x16C82, offset: 0x16C82, size: 0x8, addend: 0x0, symName: __ZNSt3__111__wrap_iterIPKiEppB7v160006Ev, symObjAddr: 0x5410, symBinAddr: 0x1000073B0, symSize: 0x20 }
  - { offsetInCU: 0x16CA7, offset: 0x16CA7, size: 0x8, addend: 0x0, symName: __Z29unnormalized_chromatic_momentiii, symObjAddr: 0x5430, symBinAddr: 0x1000073D0, symSize: 0xEA0 }
  - { offsetInCU: 0x16DD5, offset: 0x16DD5, size: 0x8, addend: 0x0, symName: __ZN11TreeDiagram8createX0Ev, symObjAddr: 0x62D0, symBinAddr: 0x100008270, symSize: 0x480 }
  - { offsetInCU: 0x16DE9, offset: 0x16DE9, size: 0x8, addend: 0x0, symName: __ZNK11TreeDiagram18inverseTreeDiagramEv, symObjAddr: 0x6750, symBinAddr: 0x1000086F0, symSize: 0x40 }
  - { offsetInCU: 0x16E0F, offset: 0x16E0F, size: 0x8, addend: 0x0, symName: __ZNSt3__16vectorI11TreeDiagramNS_9allocatorIS1_EEEC1B7v160006ESt16initializer_listIS1_E, symObjAddr: 0x6790, symBinAddr: 0x100008730, symSize: 0x30 }
  - { offsetInCU: 0x16E4A, offset: 0x16E4A, size: 0x8, addend: 0x0, symName: __ZNSt3__16vectorI11TreeDiagramNS_9allocatorIS1_EEE9push_backB7v160006EOS1_, symObjAddr: 0x67C0, symBinAddr: 0x100008760, symSize: 0x60 }
  - { offsetInCU: 0x16E81, offset: 0x16E81, size: 0x8, addend: 0x0, symName: __ZN11TreeDiagram22rightShiftHomomorphismERKS_, symObjAddr: 0x6820, symBinAddr: 0x1000087C0, symSize: 0x2E0 }
  - { offsetInCU: 0x16ED5, offset: 0x16ED5, size: 0x8, addend: 0x0, symName: __ZNSt3__16vectorI11TreeDiagramNS_9allocatorIS1_EEE4backB7v160006Ev, symObjAddr: 0x6B00, symBinAddr: 0x100008AA0, symSize: 0x20 }
  - { offsetInCU: 0x16EFB, offset: 0x16EFB, size: 0x8, addend: 0x0, symName: __ZNKSt3__16vectorINS0_IiNS_9allocatorIiEEEENS1_IS3_EEE4sizeB7v160006Ev, symObjAddr: 0x6B20, symBinAddr: 0x100008AC0, symSize: 0x30 }
  - { offsetInCU: 0x16F21, offset: 0x16F21, size: 0x8, addend: 0x0, symName: __ZNSt3__16vectorI11TreeDiagramNS_9allocatorIS1_EEEC1B7v160006Ev, symObjAddr: 0x6B50, symBinAddr: 0x100008AF0, symSize: 0x20 }
  - { offsetInCU: 0x16F4B, offset: 0x16F4B, size: 0x8, addend: 0x0, symName: __ZNSt3__16vectorI11TreeDiagramNS_9allocatorIS1_EEE9push_backB7v160006ERKS1_, symObjAddr: 0x6B70, symBinAddr: 0x100008B10, symSize: 0x60 }
  - { offsetInCU: 0x16F82, offset: 0x16F82, size: 0x8, addend: 0x0, symName: __ZNSt3__16vectorI11TreeDiagramNS_9allocatorIS1_EEEixB7v160006Em, symObjAddr: 0x6BD0, symBinAddr: 0x100008B70, symSize: 0x20 }
  - { offsetInCU: 0x16FB9, offset: 0x16FB9, size: 0x8, addend: 0x0, symName: __ZNSt3__16vectorINS0_IiNS_9allocatorIiEEEENS1_IS3_EEEixB7v160006Em, symObjAddr: 0x6BF0, symBinAddr: 0x100008B90, symSize: 0x20 }
  - { offsetInCU: 0x16FF0, offset: 0x16FF0, size: 0x8, addend: 0x0, symName: __ZNSt3__16vectorI11TreeDiagramNS_9allocatorIS1_EEED1B7v160006Ev, symObjAddr: 0x6C10, symBinAddr: 0x100008BB0, symSize: 0x20 }
  - { offsetInCU: 0x1701F, offset: 0x1701F, size: 0x8, addend: 0x0, symName: __ZNSt3__16chrono8durationIdNS_5ratioILl1ELl1EEEEC1B7v160006IxNS2_ILl1ELl1000000000EEEEERKNS1_IT_T0_EEPNS_9enable_ifIXaasr13__no_overflowIS8_S3_EE5valueooL_ZNS_17integral_constantIbLb1EE5valueEEaaeqsr13__no_overflowIS8_S3_E4typeE3denLi1Entsr23treat_as_floating_pointIS7_EE5valueEvE4typeE, symObjAddr: 0x6C80, symBinAddr: 0x100008C20, symSize: 0x30 }
  - { offsetInCU: 0x17075, offset: 0x17075, size: 0x8, addend: 0x0, symName: __ZNKSt3__16chrono8durationIdNS_5ratioILl1ELl1EEEE5countB7v160006Ev, symObjAddr: 0x6CB0, symBinAddr: 0x100008C50, symSize: 0x20 }
  - { offsetInCU: 0x1709A, offset: 0x1709A, size: 0x8, addend: 0x0, symName: __Z29unnormalized_parabolic_momentiiNSt3__112basic_stringIcNS_11char_traitsIcEENS_9allocatorIcEEEEi, symObjAddr: 0x6CD0, symBinAddr: 0x100008C70, symSize: 0xD20 }
  - { offsetInCU: 0x171A9, offset: 0x171A9, size: 0x8, addend: 0x0, symName: _main, symObjAddr: 0x79F0, symBinAddr: 0x100009990, symSize: 0x40 }
  - { offsetInCU: 0x171E3, offset: 0x171E3, size: 0x8, addend: 0x0, symName: __ZNKSt3__111__wrap_iterIPKNS_12basic_stringIcNS_11char_traitsIcEENS_9allocatorIcEEEEE4baseB7v160006Ev, symObjAddr: 0x7A70, symBinAddr: 0x100009A10, symSize: 0x20 }
  - { offsetInCU: 0x17209, offset: 0x17209, size: 0x8, addend: 0x0, symName: __ZN11TreeDiagramC2ERKNSt3__16vectorINS0_12basic_stringIcNS0_11char_traitsIcEENS0_9allocatorIcEEEENS5_IS7_EEEESB_, symObjAddr: 0x7A90, symBinAddr: 0x100009A30, symSize: 0x60 }
  - { offsetInCU: 0x1724F, offset: 0x1724F, size: 0x8, addend: 0x0, symName: __ZN11TreeDiagramD2Ev, symObjAddr: 0x7AF0, symBinAddr: 0x100009A90, symSize: 0x30 }
  - { offsetInCU: 0x1727B, offset: 0x1727B, size: 0x8, addend: 0x0, symName: __ZN11TreeDiagramC2ERKS_, symObjAddr: 0x7B20, symBinAddr: 0x100009AC0, symSize: 0x60 }
  - { offsetInCU: 0x172B0, offset: 0x172B0, size: 0x8, addend: 0x0, symName: __ZN11TreeDiagram16printTreeDiagramEv, symObjAddr: 0x7B80, symBinAddr: 0x100009B20, symSize: 0x160 }
  - { offsetInCU: 0x17379, offset: 0x17379, size: 0x8, addend: 0x0, symName: __ZNKSt3__16vectorINS_12basic_stringIcNS_11char_traitsIcEENS_9allocatorIcEEEENS4_IS6_EEE5emptyB7v160006Ev, symObjAddr: 0x7CE0, symBinAddr: 0x100009C80, symSize: 0x20 }
  - { offsetInCU: 0x1739F, offset: 0x1739F, size: 0x8, addend: 0x0, symName: __ZNSt3__16vectorINS_12basic_stringIcNS_11char_traitsIcEENS_9allocatorIcEEEENS4_IS6_EEE5eraseB7v160006ENS_11__wrap_iterIPKS6_EE, symObjAddr: 0x7D00, symBinAddr: 0x100009CA0, symSize: 0xA0 }
  - { offsetInCU: 0x173F4, offset: 0x173F4, size: 0x8, addend: 0x0, symName: __ZNSt3__16vectorINS_12basic_stringIcNS_11char_traitsIcEENS_9allocatorIcEEEENS4_IS6_EEE5beginB7v160006Ev, symObjAddr: 0x7DA0, symBinAddr: 0x100009D40, symSize: 0x30 }
  - { offsetInCU: 0x1741C, offset: 0x1741C, size: 0x8, addend: 0x0, symName: __ZNKSt3__111__wrap_iterIPNS_12basic_stringIcNS_11char_traitsIcEENS_9allocatorIcEEEEEplB7v160006El, symObjAddr: 0x7DD0, symBinAddr: 0x100009D70, symSize: 0x40 }
  - { offsetInCU: 0x17463, offset: 0x17463, size: 0x8, addend: 0x0, symName: __ZNSt3__111__wrap_iterIPKNS_12basic_stringIcNS_11char_traitsIcEENS_9allocatorIcEEEEEC1B7v160006IPS6_EERKNS0_IT_EEPNS_9enable_ifIXsr14is_convertibleISC_S8_EE5valueEvE4typeE, symObjAddr: 0x7E10, symBinAddr: 0x100009DB0, symSize: 0x30 }
  - { offsetInCU: 0x174AE, offset: 0x174AE, size: 0x8, addend: 0x0, symName: __ZNSt3__16vectorINS_12basic_stringIcNS_11char_traitsIcEENS_9allocatorIcEEEENS4_IS6_EEE3endB7v160006Ev, symObjAddr: 0x7E40, symBinAddr: 0x100009DE0, symSize: 0x30 }
  - { offsetInCU: 0x174D6, offset: 0x174D6, size: 0x8, addend: 0x0, symName: __ZNKSt3__111__wrap_iterIPNS_12basic_stringIcNS_11char_traitsIcEENS_9allocatorIcEEEEEdeB7v160006Ev, symObjAddr: 0x7EA0, symBinAddr: 0x100009E40, symSize: 0x20 }
  - { offsetInCU: 0x174FC, offset: 0x174FC, size: 0x8, addend: 0x0, symName: __ZNSt3__111__wrap_iterIPNS_12basic_stringIcNS_11char_traitsIcEENS_9allocatorIcEEEEEppB7v160006Ev, symObjAddr: 0x7F10, symBinAddr: 0x100009EB0, symSize: 0x20 }
  - { offsetInCU: 0x17522, offset: 0x17522, size: 0x8, addend: 0x0, symName: __ZNSt3__16vectorINS_12basic_stringIcNS_11char_traitsIcEENS_9allocatorIcEEEENS4_IS6_EEE11__make_iterB7v160006EPS6_, symObjAddr: 0x7F30, symBinAddr: 0x100009ED0, symSize: 0x30 }
  - { offsetInCU: 0x17557, offset: 0x17557, size: 0x8, addend: 0x0, symName: __ZNSt3__111__wrap_iterIPNS_12basic_stringIcNS_11char_traitsIcEENS_9allocatorIcEEEEEC1B7v160006EPKvS7_, symObjAddr: 0x7F60, symBinAddr: 0x100009F00, symSize: 0x30 }
  - { offsetInCU: 0x1759D, offset: 0x1759D, size: 0x8, addend: 0x0, symName: __ZNSt3__111__wrap_iterIPNS_12basic_stringIcNS_11char_traitsIcEENS_9allocatorIcEEEEEC2B7v160006EPKvS7_, symObjAddr: 0x7F90, symBinAddr: 0x100009F30, symSize: 0x20 }
  - { offsetInCU: 0x175E3, offset: 0x175E3, size: 0x8, addend: 0x0, symName: __ZNKSt3__111__wrap_iterIPNS_12basic_stringIcNS_11char_traitsIcEENS_9allocatorIcEEEEE4baseB7v160006Ev, symObjAddr: 0x7FF0, symBinAddr: 0x100009F90, symSize: 0x20 }
  - { offsetInCU: 0x17609, offset: 0x17609, size: 0x8, addend: 0x0, symName: __ZNKSt3__112basic_stringIcNS_11char_traitsIcEENS_9allocatorIcEEE4dataB7v160006Ev, symObjAddr: 0x8200, symBinAddr: 0x10000A1A0, symSize: 0x30 }
  - { offsetInCU: 0x1764D, offset: 0x1764D, size: 0x8, addend: 0x0, symName: __ZNKSt3__113basic_ostreamIcNS_11char_traitsIcEEE6sentrycvbB7v160006Ev, symObjAddr: 0x8230, symBinAddr: 0x10000A1D0, symSize: 0x20 }
  - { offsetInCU: 0x17673, offset: 0x17673, size: 0x8, addend: 0x0, symName: __ZNSt3__119ostreambuf_iteratorIcNS_11char_traitsIcEEEC1B7v160006ERNS_13basic_ostreamIcS2_EE, symObjAddr: 0x8470, symBinAddr: 0x10000A410, symSize: 0x30 }
  - { offsetInCU: 0x176AB, offset: 0x176AB, size: 0x8, addend: 0x0, symName: __ZNKSt3__18ios_base5flagsB7v160006Ev, symObjAddr: 0x84A0, symBinAddr: 0x10000A440, symSize: 0x20 }
  - { offsetInCU: 0x176D3, offset: 0x176D3, size: 0x8, addend: 0x0, symName: __ZNKSt3__19basic_iosIcNS_11char_traitsIcEEE4fillB7v160006Ev, symObjAddr: 0x84C0, symBinAddr: 0x10000A460, symSize: 0x70 }
  - { offsetInCU: 0x176FB, offset: 0x176FB, size: 0x8, addend: 0x0, symName: __ZNKSt3__119ostreambuf_iteratorIcNS_11char_traitsIcEEE6failedB7v160006Ev, symObjAddr: 0x8530, symBinAddr: 0x10000A4D0, symSize: 0x20 }
  - { offsetInCU: 0x17721, offset: 0x17721, size: 0x8, addend: 0x0, symName: __ZNSt3__19basic_iosIcNS_11char_traitsIcEEE8setstateB7v160006Ej, symObjAddr: 0x8550, symBinAddr: 0x10000A4F0, symSize: 0x30 }
  - { offsetInCU: 0x17756, offset: 0x17756, size: 0x8, addend: 0x0, symName: __ZNKSt3__18ios_base5widthB7v160006Ev, symObjAddr: 0x8590, symBinAddr: 0x10000A530, symSize: 0x20 }
  - { offsetInCU: 0x1777E, offset: 0x1777E, size: 0x8, addend: 0x0, symName: __ZNSt3__115basic_streambufIcNS_11char_traitsIcEEE5sputnB7v160006EPKcl, symObjAddr: 0x85B0, symBinAddr: 0x10000A550, symSize: 0x30 }
  - { offsetInCU: 0x177C0, offset: 0x177C0, size: 0x8, addend: 0x0, symName: __ZNSt3__18ios_base5widthB7v160006El, symObjAddr: 0x85E0, symBinAddr: 0x10000A580, symSize: 0x30 }
  - { offsetInCU: 0x17806, offset: 0x17806, size: 0x8, addend: 0x0, symName: __ZNSt3__119ostreambuf_iteratorIcNS_11char_traitsIcEEEC2B7v160006ERNS_13basic_ostreamIcS2_EE, symObjAddr: 0x8610, symBinAddr: 0x10000A5B0, symSize: 0x50 }
  - { offsetInCU: 0x1783E, offset: 0x1783E, size: 0x8, addend: 0x0, symName: __ZNKSt3__19basic_iosIcNS_11char_traitsIcEEE5rdbufB7v160006Ev, symObjAddr: 0x8660, symBinAddr: 0x10000A600, symSize: 0x20 }
  - { offsetInCU: 0x17866, offset: 0x17866, size: 0x8, addend: 0x0, symName: __ZNKSt3__18ios_base5rdbufB7v160006Ev, symObjAddr: 0x8680, symBinAddr: 0x10000A620, symSize: 0x20 }
  - { offsetInCU: 0x1788C, offset: 0x1788C, size: 0x8, addend: 0x0, symName: __ZNSt3__111char_traitsIcE11eq_int_typeEii, symObjAddr: 0x86A0, symBinAddr: 0x10000A640, symSize: 0x20 }
  - { offsetInCU: 0x178BD, offset: 0x178BD, size: 0x8, addend: 0x0, symName: __ZNSt3__111char_traitsIcE3eofEv, symObjAddr: 0x86C0, symBinAddr: 0x10000A660, symSize: 0x10 }
  - { offsetInCU: 0x178D1, offset: 0x178D1, size: 0x8, addend: 0x0, symName: __ZNKSt3__19basic_iosIcNS_11char_traitsIcEEE5widenB7v160006Ec, symObjAddr: 0x86D0, symBinAddr: 0x10000A670, symSize: 0x80 }
  - { offsetInCU: 0x1793F, offset: 0x1793F, size: 0x8, addend: 0x0, symName: __ZNKSt3__15ctypeIcE5widenB7v160006Ec, symObjAddr: 0x8780, symBinAddr: 0x10000A720, symSize: 0x30 }
  - { offsetInCU: 0x17974, offset: 0x17974, size: 0x8, addend: 0x0, symName: __ZNSt3__18ios_base8setstateB7v160006Ej, symObjAddr: 0x87B0, symBinAddr: 0x10000A750, symSize: 0x30 }
  - { offsetInCU: 0x179AB, offset: 0x179AB, size: 0x8, addend: 0x0, symName: __ZNKSt3__112basic_stringIcNS_11char_traitsIcEENS_9allocatorIcEEE13__get_pointerB7v160006Ev, symObjAddr: 0x87F0, symBinAddr: 0x10000A790, symSize: 0x50 }
  - { offsetInCU: 0x179D1, offset: 0x179D1, size: 0x8, addend: 0x0, symName: __ZNKSt3__112basic_stringIcNS_11char_traitsIcEENS_9allocatorIcEEE9__is_longB7v160006Ev, symObjAddr: 0x8840, symBinAddr: 0x10000A7E0, symSize: 0x30 }
  - { offsetInCU: 0x179F7, offset: 0x179F7, size: 0x8, addend: 0x0, symName: __ZNKSt3__112basic_stringIcNS_11char_traitsIcEENS_9allocatorIcEEE18__get_long_pointerB7v160006Ev, symObjAddr: 0x8870, symBinAddr: 0x10000A810, symSize: 0x20 }
  - { offsetInCU: 0x17A1D, offset: 0x17A1D, size: 0x8, addend: 0x0, symName: __ZNKSt3__112basic_stringIcNS_11char_traitsIcEENS_9allocatorIcEEE19__get_short_pointerB7v160006Ev, symObjAddr: 0x8890, symBinAddr: 0x10000A830, symSize: 0x30 }
  - { offsetInCU: 0x17A43, offset: 0x17A43, size: 0x8, addend: 0x0, symName: __ZNKSt3__117__compressed_pairINS_12basic_stringIcNS_11char_traitsIcEENS_9allocatorIcEEE5__repES5_E5firstB7v160006Ev, symObjAddr: 0x88C0, symBinAddr: 0x10000A860, symSize: 0x20 }
  - { offsetInCU: 0x17A69, offset: 0x17A69, size: 0x8, addend: 0x0, symName: __ZNKSt3__122__compressed_pair_elemINS_12basic_stringIcNS_11char_traitsIcEENS_9allocatorIcEEE5__repELi0ELb0EE5__getB7v160006Ev, symObjAddr: 0x88E0, symBinAddr: 0x10000A880, symSize: 0x10 }
  - { offsetInCU: 0x17A8F, offset: 0x17A8F, size: 0x8, addend: 0x0, symName: __ZNSt3__114pointer_traitsIPKcE10pointer_toB7v160006ERS1_, symObjAddr: 0x88F0, symBinAddr: 0x10000A890, symSize: 0x10 }
  - { offsetInCU: 0x17AB2, offset: 0x17AB2, size: 0x8, addend: 0x0, symName: __ZNKSt3__16vectorINS_12basic_stringIcNS_11char_traitsIcEENS_9allocatorIcEEEENS4_IS6_EEE6cbeginB7v160006Ev, symObjAddr: 0x8940, symBinAddr: 0x10000A8E0, symSize: 0x30 }
  - { offsetInCU: 0x17AD8, offset: 0x17AD8, size: 0x8, addend: 0x0, symName: __ZNSt3__16vectorINS_12basic_stringIcNS_11char_traitsIcEENS_9allocatorIcEEEENS4_IS6_EEE17__destruct_at_endB7v160006EPS6_, symObjAddr: 0x8970, symBinAddr: 0x10000A910, symSize: 0x60 }
  - { offsetInCU: 0x17B1C, offset: 0x17B1C, size: 0x8, addend: 0x0, symName: __ZNSt3__16vectorINS_12basic_stringIcNS_11char_traitsIcEENS_9allocatorIcEEEENS4_IS6_EEE27__invalidate_iterators_pastB7v160006EPS6_, symObjAddr: 0x8A10, symBinAddr: 0x10000A9B0, symSize: 0x10 }
  - { offsetInCU: 0x17B53, offset: 0x17B53, size: 0x8, addend: 0x0, symName: __ZNSt3__16vectorINS_12basic_stringIcNS_11char_traitsIcEENS_9allocatorIcEEEENS4_IS6_EEE22__base_destruct_at_endB7v160006EPS6_, symObjAddr: 0x8A20, symBinAddr: 0x10000A9C0, symSize: 0x80 }
  - { offsetInCU: 0x17B97, offset: 0x17B97, size: 0x8, addend: 0x0, symName: __ZNKSt3__16vectorINS_12basic_stringIcNS_11char_traitsIcEENS_9allocatorIcEEEENS4_IS6_EEE17__annotate_shrinkB7v160006Em, symObjAddr: 0x8AA0, symBinAddr: 0x10000AA40, symSize: 0xA0 }
  - { offsetInCU: 0x17BCC, offset: 0x17BCC, size: 0x8, addend: 0x0, symName: __ZNSt3__116allocator_traitsINS_9allocatorINS_12basic_stringIcNS_11char_traitsIcEENS1_IcEEEEEEE7destroyB7v160006IS6_vEEvRS7_PT_, symObjAddr: 0x8B40, symBinAddr: 0x10000AAE0, symSize: 0x30 }
  - { offsetInCU: 0x17C09, offset: 0x17C09, size: 0x8, addend: 0x0, symName: __ZNSt3__16vectorINS_12basic_stringIcNS_11char_traitsIcEENS_9allocatorIcEEEENS4_IS6_EEE7__allocB7v160006Ev, symObjAddr: 0x8B70, symBinAddr: 0x10000AB10, symSize: 0x20 }
  - { offsetInCU: 0x17C2F, offset: 0x17C2F, size: 0x8, addend: 0x0, symName: __ZNSt3__19allocatorINS_12basic_stringIcNS_11char_traitsIcEENS0_IcEEEEE7destroyB7v160006EPS5_, symObjAddr: 0x8BA0, symBinAddr: 0x10000AB40, symSize: 0x20 }
  - { offsetInCU: 0x17C63, offset: 0x17C63, size: 0x8, addend: 0x0, symName: __ZNSt3__117__compressed_pairIPNS_12basic_stringIcNS_11char_traitsIcEENS_9allocatorIcEEEENS4_IS6_EEE6secondB7v160006Ev, symObjAddr: 0x8BC0, symBinAddr: 0x10000AB60, symSize: 0x20 }
  - { offsetInCU: 0x17C89, offset: 0x17C89, size: 0x8, addend: 0x0, symName: __ZNSt3__122__compressed_pair_elemINS_9allocatorINS_12basic_stringIcNS_11char_traitsIcEENS1_IcEEEEEELi1ELb1EE5__getB7v160006Ev, symObjAddr: 0x8BE0, symBinAddr: 0x10000AB80, symSize: 0x10 }
  - { offsetInCU: 0x17CAF, offset: 0x17CAF, size: 0x8, addend: 0x0, symName: __ZNKSt3__16vectorINS_12basic_stringIcNS_11char_traitsIcEENS_9allocatorIcEEEENS4_IS6_EEE31__annotate_contiguous_containerB7v160006EPKvSA_SA_SA_, symObjAddr: 0x8BF0, symBinAddr: 0x10000AB90, symSize: 0x20 }
  - { offsetInCU: 0x17D01, offset: 0x17D01, size: 0x8, addend: 0x0, symName: __ZNKSt3__16vectorINS_12basic_stringIcNS_11char_traitsIcEENS_9allocatorIcEEEENS4_IS6_EEE4dataB7v160006Ev, symObjAddr: 0x8C10, symBinAddr: 0x10000ABB0, symSize: 0x20 }
  - { offsetInCU: 0x17D27, offset: 0x17D27, size: 0x8, addend: 0x0, symName: __ZNKSt3__16vectorINS_12basic_stringIcNS_11char_traitsIcEENS_9allocatorIcEEEENS4_IS6_EEE8capacityB7v160006Ev, symObjAddr: 0x8C30, symBinAddr: 0x10000ABD0, symSize: 0x40 }
  - { offsetInCU: 0x17D4D, offset: 0x17D4D, size: 0x8, addend: 0x0, symName: __ZNKSt3__16vectorINS_12basic_stringIcNS_11char_traitsIcEENS_9allocatorIcEEEENS4_IS6_EEE9__end_capB7v160006Ev, symObjAddr: 0x8C70, symBinAddr: 0x10000AC10, symSize: 0x20 }
  - { offsetInCU: 0x17D73, offset: 0x17D73, size: 0x8, addend: 0x0, symName: __ZNKSt3__117__compressed_pairIPNS_12basic_stringIcNS_11char_traitsIcEENS_9allocatorIcEEEENS4_IS6_EEE5firstB7v160006Ev, symObjAddr: 0x8C90, symBinAddr: 0x10000AC30, symSize: 0x20 }
  - { offsetInCU: 0x17D99, offset: 0x17D99, size: 0x8, addend: 0x0, symName: __ZNKSt3__122__compressed_pair_elemIPNS_12basic_stringIcNS_11char_traitsIcEENS_9allocatorIcEEEELi0ELb0EE5__getB7v160006Ev, symObjAddr: 0x8CB0, symBinAddr: 0x10000AC50, symSize: 0x10 }
  - { offsetInCU: 0x17DE2, offset: 0x17DE2, size: 0x8, addend: 0x0, symName: __ZNKSt3__111__move_loopINS_17_ClassicAlgPolicyEEclB7v160006IPNS_12basic_stringIcNS_11char_traitsIcEENS_9allocatorIcEEEESA_SA_EENS_4pairIT_T1_EESC_T0_SD_, symObjAddr: 0x8E40, symBinAddr: 0x10000ADE0, symSize: 0x80 }
  - { offsetInCU: 0x17E4D, offset: 0x17E4D, size: 0x8, addend: 0x0, symName: __ZNSt3__18_IterOpsINS_17_ClassicAlgPolicyEE11__iter_moveB7v160006IRPNS_12basic_stringIcNS_11char_traitsIcEENS_9allocatorIcEEEEEENS_9enable_ifIXsr12is_referenceIDTdeclsr3stdE7declvalIRT_EEEEE5valueEDTclsr3stdE4movedeclsr3stdE7declvalISE_EEEEE4typeEOSD_, symObjAddr: 0x8F80, symBinAddr: 0x10000AF20, symSize: 0x20 }
  - { offsetInCU: 0x17E79, offset: 0x17E79, size: 0x8, addend: 0x0, symName: __ZNSt3__18_IterOpsINS_17_ClassicAlgPolicyEE25__validate_iter_referenceB7v160006IRPNS_12basic_stringIcNS_11char_traitsIcEENS_9allocatorIcEEEEEEvv, symObjAddr: 0x8FA0, symBinAddr: 0x10000AF40, symSize: 0x10 }
  - { offsetInCU: 0x17E97, offset: 0x17E97, size: 0x8, addend: 0x0, symName: __ZNSt3__118__unwrap_iter_implIPNS_12basic_stringIcNS_11char_traitsIcEENS_9allocatorIcEEEELb1EE8__unwrapB7v160006ES7_, symObjAddr: 0x8FB0, symBinAddr: 0x10000AF50, symSize: 0x20 }
  - { offsetInCU: 0x17EBF, offset: 0x17EBF, size: 0x8, addend: 0x0, symName: __ZNSt3__14pairIPNS_12basic_stringIcNS_11char_traitsIcEENS_9allocatorIcEEEES7_EC1B7v160006IS7_S7_LPv0EEEOT_OT0_, symObjAddr: 0x8FD0, symBinAddr: 0x10000AF70, symSize: 0x30 }
  - { offsetInCU: 0x17F1D, offset: 0x17F1D, size: 0x8, addend: 0x0, symName: __ZNSt3__14pairIPNS_12basic_stringIcNS_11char_traitsIcEENS_9allocatorIcEEEES7_EC2B7v160006IS7_S7_LPv0EEEOT_OT0_, symObjAddr: 0x9000, symBinAddr: 0x10000AFA0, symSize: 0x30 }
  - { offsetInCU: 0x17F7B, offset: 0x17F7B, size: 0x8, addend: 0x0, symName: __ZNSt3__118__unwrap_iter_implIPNS_12basic_stringIcNS_11char_traitsIcEENS_9allocatorIcEEEELb1EE8__rewrapB7v160006ES7_S7_, symObjAddr: 0x9030, symBinAddr: 0x10000AFD0, symSize: 0x60 }
  - { offsetInCU: 0x17FAC, offset: 0x17FAC, size: 0x8, addend: 0x0, symName: __ZNSt3__111__wrap_iterIPNS_12basic_stringIcNS_11char_traitsIcEENS_9allocatorIcEEEEEpLB7v160006El, symObjAddr: 0x9090, symBinAddr: 0x10000B030, symSize: 0x20 }
  - { offsetInCU: 0x17FE0, offset: 0x17FE0, size: 0x8, addend: 0x0, symName: __ZNSt3__111__wrap_iterIPKNS_12basic_stringIcNS_11char_traitsIcEENS_9allocatorIcEEEEEC2B7v160006IPS6_EERKNS0_IT_EEPNS_9enable_ifIXsr14is_convertibleISC_S8_EE5valueEvE4typeE, symObjAddr: 0x90B0, symBinAddr: 0x10000B050, symSize: 0x40 }
  - { offsetInCU: 0x1802B, offset: 0x1802B, size: 0x8, addend: 0x0, symName: __ZNSt3__14pairI11TreeDiagramS1_ED2Ev, symObjAddr: 0x90F0, symBinAddr: 0x10000B090, symSize: 0x30 }
  - { offsetInCU: 0x18057, offset: 0x18057, size: 0x8, addend: 0x0, symName: __ZN11TreeDiagramC2EOS_, symObjAddr: 0x9120, symBinAddr: 0x10000B0C0, symSize: 0x40 }
  - { offsetInCU: 0x1808C, offset: 0x1808C, size: 0x8, addend: 0x0, symName: __ZNSt3__16vectorINS_12basic_stringIcNS_11char_traitsIcEENS_9allocatorIcEEEENS4_IS6_EEEC1B7v160006EOS8_, symObjAddr: 0x9160, symBinAddr: 0x10000B100, symSize: 0x30 }
  - { offsetInCU: 0x180C7, offset: 0x180C7, size: 0x8, addend: 0x0, symName: __ZNSt3__16vectorINS_12basic_stringIcNS_11char_traitsIcEENS_9allocatorIcEEEENS4_IS6_EEEC2B7v160006EOS8_, symObjAddr: 0x9190, symBinAddr: 0x10000B130, symSize: 0xF0 }
  - { offsetInCU: 0x1810C, offset: 0x1810C, size: 0x8, addend: 0x0, symName: __ZNSt3__117__compressed_pairIPNS_12basic_stringIcNS_11char_traitsIcEENS_9allocatorIcEEEENS4_IS6_EEEC1B7v160006IDnS8_EEOT_OT0_, symObjAddr: 0x9280, symBinAddr: 0x10000B220, symSize: 0x30 }
  - { offsetInCU: 0x18164, offset: 0x18164, size: 0x8, addend: 0x0, symName: __ZNSt3__16vectorINS_12basic_stringIcNS_11char_traitsIcEENS_9allocatorIcEEEENS4_IS6_EEE9__end_capB7v160006Ev, symObjAddr: 0x92D0, symBinAddr: 0x10000B270, symSize: 0x20 }
  - { offsetInCU: 0x1818A, offset: 0x1818A, size: 0x8, addend: 0x0, symName: __ZNSt3__117__compressed_pairIPNS_12basic_stringIcNS_11char_traitsIcEENS_9allocatorIcEEEENS4_IS6_EEEC2B7v160006IDnS8_EEOT_OT0_, symObjAddr: 0x92F0, symBinAddr: 0x10000B290, symSize: 0x40 }
  - { offsetInCU: 0x181E2, offset: 0x181E2, size: 0x8, addend: 0x0, symName: __ZNSt3__122__compressed_pair_elemIPNS_12basic_stringIcNS_11char_traitsIcEENS_9allocatorIcEEEELi0ELb0EEC2B7v160006IDnvEEOT_, symObjAddr: 0x9330, symBinAddr: 0x10000B2D0, symSize: 0x20 }
  - { offsetInCU: 0x18224, offset: 0x18224, size: 0x8, addend: 0x0, symName: __ZNSt3__122__compressed_pair_elemINS_9allocatorINS_12basic_stringIcNS_11char_traitsIcEENS1_IcEEEEEELi1ELb1EEC2B7v160006IS7_vEEOT_, symObjAddr: 0x9350, symBinAddr: 0x10000B2F0, symSize: 0x10 }
  - { offsetInCU: 0x18266, offset: 0x18266, size: 0x8, addend: 0x0, symName: __ZNSt3__117__compressed_pairIPNS_12basic_stringIcNS_11char_traitsIcEENS_9allocatorIcEEEENS4_IS6_EEE5firstB7v160006Ev, symObjAddr: 0x9360, symBinAddr: 0x10000B300, symSize: 0x20 }
  - { offsetInCU: 0x1828C, offset: 0x1828C, size: 0x8, addend: 0x0, symName: __ZNSt3__122__compressed_pair_elemIPNS_12basic_stringIcNS_11char_traitsIcEENS_9allocatorIcEEEELi0ELb0EE5__getB7v160006Ev, symObjAddr: 0x9380, symBinAddr: 0x10000B320, symSize: 0x10 }
  - { offsetInCU: 0x182B2, offset: 0x182B2, size: 0x8, addend: 0x0, symName: __ZNKSt3__111__wrap_iterIPKiE4baseB7v160006Ev, symObjAddr: 0x93D0, symBinAddr: 0x10000B370, symSize: 0x20 }
  - { offsetInCU: 0x182D8, offset: 0x182D8, size: 0x8, addend: 0x0, symName: __ZNSt3__16vectorINS_12basic_stringIcNS_11char_traitsIcEENS_9allocatorIcEEEENS4_IS6_EEE6insertENS_11__wrap_iterIPKS6_EEOS6_, symObjAddr: 0x93F0, symBinAddr: 0x10000B390, symSize: 0x1D0 }
  - { offsetInCU: 0x18352, offset: 0x18352, size: 0x8, addend: 0x0, symName: __ZNSt3__16vectorINS_12basic_stringIcNS_11char_traitsIcEENS_9allocatorIcEEEENS4_IS6_EEE22__construct_one_at_endB7v160006IJS6_EEEvDpOT_, symObjAddr: 0x9600, symBinAddr: 0x10000B5A0, symSize: 0x90 }
  - { offsetInCU: 0x183A1, offset: 0x183A1, size: 0x8, addend: 0x0, symName: __ZNSt3__16vectorINS_12basic_stringIcNS_11char_traitsIcEENS_9allocatorIcEEEENS4_IS6_EEE12__move_rangeEPS6_S9_S9_, symObjAddr: 0x9690, symBinAddr: 0x10000B630, symSize: 0x130 }
  - { offsetInCU: 0x1845F, offset: 0x1845F, size: 0x8, addend: 0x0, symName: __ZNKSt3__16vectorINS_12basic_stringIcNS_11char_traitsIcEENS_9allocatorIcEEEENS4_IS6_EEE11__recommendB7v160006Em, symObjAddr: 0x97C0, symBinAddr: 0x10000B760, symSize: 0xA0 }
  - { offsetInCU: 0x184B4, offset: 0x184B4, size: 0x8, addend: 0x0, symName: __ZNSt3__114__split_bufferINS_12basic_stringIcNS_11char_traitsIcEENS_9allocatorIcEEEERNS4_IS6_EEEC1EmmS8_, symObjAddr: 0x9860, symBinAddr: 0x10000B800, symSize: 0x40 }
  - { offsetInCU: 0x1850A, offset: 0x1850A, size: 0x8, addend: 0x0, symName: __ZNSt3__114__split_bufferINS_12basic_stringIcNS_11char_traitsIcEENS_9allocatorIcEEEERNS4_IS6_EEE9push_backEOS6_, symObjAddr: 0x98A0, symBinAddr: 0x10000B840, symSize: 0x2A0 }
  - { offsetInCU: 0x18582, offset: 0x18582, size: 0x8, addend: 0x0, symName: __ZNSt3__114__split_bufferINS_12basic_stringIcNS_11char_traitsIcEENS_9allocatorIcEEEERNS4_IS6_EEED1Ev, symObjAddr: 0x9CB0, symBinAddr: 0x10000BC50, symSize: 0x20 }
  - { offsetInCU: 0x185C7, offset: 0x185C7, size: 0x8, addend: 0x0, symName: __ZNSt3__16vectorINS_12basic_stringIcNS_11char_traitsIcEENS_9allocatorIcEEEENS4_IS6_EEE21_ConstructTransactionC1B7v160006ERS8_m, symObjAddr: 0x9CD0, symBinAddr: 0x10000BC70, symSize: 0x30 }
  - { offsetInCU: 0x1860F, offset: 0x1860F, size: 0x8, addend: 0x0, symName: __ZNSt3__116allocator_traitsINS_9allocatorINS_12basic_stringIcNS_11char_traitsIcEENS1_IcEEEEEEE9constructB7v160006IS6_JS6_EvEEvRS7_PT_DpOT0_, symObjAddr: 0x9D00, symBinAddr: 0x10000BCA0, symSize: 0x30 }
  - { offsetInCU: 0x18666, offset: 0x18666, size: 0x8, addend: 0x0, symName: __ZNSt3__16vectorINS_12basic_stringIcNS_11char_traitsIcEENS_9allocatorIcEEEENS4_IS6_EEE21_ConstructTransactionD1B7v160006Ev, symObjAddr: 0x9D30, symBinAddr: 0x10000BCD0, symSize: 0x20 }
  - { offsetInCU: 0x18690, offset: 0x18690, size: 0x8, addend: 0x0, symName: __ZNSt3__16vectorINS_12basic_stringIcNS_11char_traitsIcEENS_9allocatorIcEEEENS4_IS6_EEE21_ConstructTransactionC2B7v160006ERS8_m, symObjAddr: 0x9D50, symBinAddr: 0x10000BCF0, symSize: 0x40 }
  - { offsetInCU: 0x186D8, offset: 0x186D8, size: 0x8, addend: 0x0, symName: __ZNSt3__19allocatorINS_12basic_stringIcNS_11char_traitsIcEENS0_IcEEEEE9constructB7v160006IS5_JS5_EEEvPT_DpOT0_, symObjAddr: 0x9D90, symBinAddr: 0x10000BD30, symSize: 0x30 }
  - { offsetInCU: 0x1872E, offset: 0x1872E, size: 0x8, addend: 0x0, symName: __ZNSt3__112basic_stringIcNS_11char_traitsIcEENS_9allocatorIcEEEC1B7v160006EOS5_, symObjAddr: 0x9DC0, symBinAddr: 0x10000BD60, symSize: 0x30 }
  - { offsetInCU: 0x18767, offset: 0x18767, size: 0x8, addend: 0x0, symName: __ZNSt3__112basic_stringIcNS_11char_traitsIcEENS_9allocatorIcEEEC2B7v160006EOS5_, symObjAddr: 0x9DF0, symBinAddr: 0x10000BD90, symSize: 0x90 }
  - { offsetInCU: 0x187A0, offset: 0x187A0, size: 0x8, addend: 0x0, symName: __ZNSt3__112basic_stringIcNS_11char_traitsIcEENS_9allocatorIcEEE14__default_initB7v160006Ev, symObjAddr: 0x9E80, symBinAddr: 0x10000BE20, symSize: 0x50 }
  - { offsetInCU: 0x187C6, offset: 0x187C6, size: 0x8, addend: 0x0, symName: __ZNSt3__117__compressed_pairINS_12basic_stringIcNS_11char_traitsIcEENS_9allocatorIcEEE5__repES5_E5firstB7v160006Ev, symObjAddr: 0x9EF0, symBinAddr: 0x10000BE90, symSize: 0x20 }
  - { offsetInCU: 0x187EC, offset: 0x187EC, size: 0x8, addend: 0x0, symName: __ZNSt3__122__compressed_pair_elemINS_12basic_stringIcNS_11char_traitsIcEENS_9allocatorIcEEE5__repELi0ELb0EE5__getB7v160006Ev, symObjAddr: 0x9F10, symBinAddr: 0x10000BEB0, symSize: 0x10 }
  - { offsetInCU: 0x18812, offset: 0x18812, size: 0x8, addend: 0x0, symName: __ZNSt3__16vectorINS_12basic_stringIcNS_11char_traitsIcEENS_9allocatorIcEEEENS4_IS6_EEE21_ConstructTransactionD2B7v160006Ev, symObjAddr: 0x9F20, symBinAddr: 0x10000BEC0, symSize: 0x20 }
  - { offsetInCU: 0x18846, offset: 0x18846, size: 0x8, addend: 0x0, symName: __ZNKSt3__120__move_backward_loopINS_17_ClassicAlgPolicyEEclB7v160006IPNS_12basic_stringIcNS_11char_traitsIcEENS_9allocatorIcEEEESA_SA_EENS_4pairIT_T1_EESC_T0_SD_, symObjAddr: 0xA0B0, symBinAddr: 0x10000C050, symSize: 0x90 }
  - { offsetInCU: 0x188CD, offset: 0x188CD, size: 0x8, addend: 0x0, symName: __ZNSt3__18_IterOpsINS_17_ClassicAlgPolicyEE4nextB7v160006IPNS_12basic_stringIcNS_11char_traitsIcEENS_9allocatorIcEEEEEET_SB_SB_, symObjAddr: 0xA140, symBinAddr: 0x10000C0E0, symSize: 0x20 }
  - { offsetInCU: 0x18903, offset: 0x18903, size: 0x8, addend: 0x0, symName: __ZNKSt3__16vectorINS_12basic_stringIcNS_11char_traitsIcEENS_9allocatorIcEEEENS4_IS6_EEE8max_sizeEv, symObjAddr: 0xA160, symBinAddr: 0x10000C100, symSize: 0x60 }
  - { offsetInCU: 0x1892B, offset: 0x1892B, size: 0x8, addend: 0x0, symName: __ZNKSt3__16vectorINS_12basic_stringIcNS_11char_traitsIcEENS_9allocatorIcEEEENS4_IS6_EEE20__throw_length_errorB7v160006Ev, symObjAddr: 0xA1C0, symBinAddr: 0x10000C160, symSize: 0x20 }
  - { offsetInCU: 0x1895B, offset: 0x1895B, size: 0x8, addend: 0x0, symName: __ZNSt3__116allocator_traitsINS_9allocatorINS_12basic_stringIcNS_11char_traitsIcEENS1_IcEEEEEEE8max_sizeB7v160006IS7_vEEmRKS7_, symObjAddr: 0xA210, symBinAddr: 0x10000C1B0, symSize: 0x20 }
  - { offsetInCU: 0x18989, offset: 0x18989, size: 0x8, addend: 0x0, symName: __ZNKSt3__16vectorINS_12basic_stringIcNS_11char_traitsIcEENS_9allocatorIcEEEENS4_IS6_EEE7__allocB7v160006Ev, symObjAddr: 0xA230, symBinAddr: 0x10000C1D0, symSize: 0x20 }
  - { offsetInCU: 0x189AF, offset: 0x189AF, size: 0x8, addend: 0x0, symName: __ZNSt3__114numeric_limitsIlE3maxB7v160006Ev, symObjAddr: 0xA250, symBinAddr: 0x10000C1F0, symSize: 0x10 }
  - { offsetInCU: 0x189D7, offset: 0x189D7, size: 0x8, addend: 0x0, symName: __ZNKSt3__16__lessImmEclB7v160006ERKmS3_, symObjAddr: 0xA2B0, symBinAddr: 0x10000C250, symSize: 0x30 }
  - { offsetInCU: 0x18A19, offset: 0x18A19, size: 0x8, addend: 0x0, symName: __ZNKSt3__19allocatorINS_12basic_stringIcNS_11char_traitsIcEENS0_IcEEEEE8max_sizeB7v160006Ev, symObjAddr: 0xA2E0, symBinAddr: 0x10000C280, symSize: 0x20 }
  - { offsetInCU: 0x18A3F, offset: 0x18A3F, size: 0x8, addend: 0x0, symName: __ZNKSt3__117__compressed_pairIPNS_12basic_stringIcNS_11char_traitsIcEENS_9allocatorIcEEEENS4_IS6_EEE6secondB7v160006Ev, symObjAddr: 0xA300, symBinAddr: 0x10000C2A0, symSize: 0x20 }
  - { offsetInCU: 0x18A65, offset: 0x18A65, size: 0x8, addend: 0x0, symName: __ZNKSt3__122__compressed_pair_elemINS_9allocatorINS_12basic_stringIcNS_11char_traitsIcEENS1_IcEEEEEELi1ELb1EE5__getB7v160006Ev, symObjAddr: 0xA320, symBinAddr: 0x10000C2C0, symSize: 0x10 }
  - { offsetInCU: 0x18A8B, offset: 0x18A8B, size: 0x8, addend: 0x0, symName: __ZNSt3__123__libcpp_numeric_limitsIlLb1EE3maxB7v160006Ev, symObjAddr: 0xA330, symBinAddr: 0x10000C2D0, symSize: 0x10 }
  - { offsetInCU: 0x18A9F, offset: 0x18A9F, size: 0x8, addend: 0x0, symName: __ZNSt12length_errorC1B7v160006EPKc, symObjAddr: 0xA3B0, symBinAddr: 0x10000C350, symSize: 0x30 }
  - { offsetInCU: 0x18AD7, offset: 0x18AD7, size: 0x8, addend: 0x0, symName: __ZNSt12length_errorC2B7v160006EPKc, symObjAddr: 0xA3E0, symBinAddr: 0x10000C380, symSize: 0x40 }
  - { offsetInCU: 0x18B0F, offset: 0x18B0F, size: 0x8, addend: 0x0, symName: __ZNSt3__114__split_bufferINS_12basic_stringIcNS_11char_traitsIcEENS_9allocatorIcEEEERNS4_IS6_EEEC2EmmS8_, symObjAddr: 0xA420, symBinAddr: 0x10000C3C0, symSize: 0xC0 }
  - { offsetInCU: 0x18B82, offset: 0x18B82, size: 0x8, addend: 0x0, symName: __ZNSt3__117__compressed_pairIPNS_12basic_stringIcNS_11char_traitsIcEENS_9allocatorIcEEEERNS4_IS6_EEEC1B7v160006IDnS9_EEOT_OT0_, symObjAddr: 0xA4E0, symBinAddr: 0x10000C480, symSize: 0x30 }
  - { offsetInCU: 0x18BDA, offset: 0x18BDA, size: 0x8, addend: 0x0, symName: __ZNSt3__114__split_bufferINS_12basic_stringIcNS_11char_traitsIcEENS_9allocatorIcEEEERNS4_IS6_EEE7__allocB7v160006Ev, symObjAddr: 0xA550, symBinAddr: 0x10000C4F0, symSize: 0x20 }
  - { offsetInCU: 0x18C00, offset: 0x18C00, size: 0x8, addend: 0x0, symName: __ZNSt3__114__split_bufferINS_12basic_stringIcNS_11char_traitsIcEENS_9allocatorIcEEEERNS4_IS6_EEE9__end_capB7v160006Ev, symObjAddr: 0xA570, symBinAddr: 0x10000C510, symSize: 0x20 }
  - { offsetInCU: 0x18C26, offset: 0x18C26, size: 0x8, addend: 0x0, symName: __ZNSt3__117__compressed_pairIPNS_12basic_stringIcNS_11char_traitsIcEENS_9allocatorIcEEEERNS4_IS6_EEEC2B7v160006IDnS9_EEOT_OT0_, symObjAddr: 0xA590, symBinAddr: 0x10000C530, symSize: 0x40 }
  - { offsetInCU: 0x18C7E, offset: 0x18C7E, size: 0x8, addend: 0x0, symName: __ZNSt3__122__compressed_pair_elemIRNS_9allocatorINS_12basic_stringIcNS_11char_traitsIcEENS1_IcEEEEEELi1ELb0EEC2B7v160006IS8_vEEOT_, symObjAddr: 0xA5D0, symBinAddr: 0x10000C570, symSize: 0x20 }
  - { offsetInCU: 0x18CC0, offset: 0x18CC0, size: 0x8, addend: 0x0, symName: __ZNSt3__19allocatorINS_12basic_stringIcNS_11char_traitsIcEENS0_IcEEEEE8allocateB7v160006Em, symObjAddr: 0xA5F0, symBinAddr: 0x10000C590, symSize: 0x50 }
  - { offsetInCU: 0x18CF4, offset: 0x18CF4, size: 0x8, addend: 0x0, symName: __ZNSt3__117__compressed_pairIPNS_12basic_stringIcNS_11char_traitsIcEENS_9allocatorIcEEEERNS4_IS6_EEE6secondB7v160006Ev, symObjAddr: 0xA6C0, symBinAddr: 0x10000C660, symSize: 0x20 }
  - { offsetInCU: 0x18D1A, offset: 0x18D1A, size: 0x8, addend: 0x0, symName: __ZNSt3__122__compressed_pair_elemIRNS_9allocatorINS_12basic_stringIcNS_11char_traitsIcEENS1_IcEEEEEELi1ELb0EE5__getB7v160006Ev, symObjAddr: 0xA6E0, symBinAddr: 0x10000C680, symSize: 0x20 }
  - { offsetInCU: 0x18D40, offset: 0x18D40, size: 0x8, addend: 0x0, symName: __ZNSt3__117__compressed_pairIPNS_12basic_stringIcNS_11char_traitsIcEENS_9allocatorIcEEEERNS4_IS6_EEE5firstB7v160006Ev, symObjAddr: 0xA700, symBinAddr: 0x10000C6A0, symSize: 0x20 }
  - { offsetInCU: 0x18D66, offset: 0x18D66, size: 0x8, addend: 0x0, symName: __ZNSt3__114__split_bufferINS_12basic_stringIcNS_11char_traitsIcEENS_9allocatorIcEEEERNS4_IS6_EEE18__construct_at_endINS_13move_iteratorIPS6_EEEENS_9enable_ifIXsr27__is_cpp17_forward_iteratorIT_EE5valueEvE4typeESF_SF_, symObjAddr: 0xA720, symBinAddr: 0x10000C6C0, symSize: 0x100 }
  - { offsetInCU: 0x18DC2, offset: 0x18DC2, size: 0x8, addend: 0x0, symName: __ZNSt3__113move_iteratorIPNS_12basic_stringIcNS_11char_traitsIcEENS_9allocatorIcEEEEEC1B7v160006ES7_, symObjAddr: 0xA820, symBinAddr: 0x10000C7C0, symSize: 0x30 }
  - { offsetInCU: 0x18E04, offset: 0x18E04, size: 0x8, addend: 0x0, symName: __ZNSt3__114__split_bufferINS_12basic_stringIcNS_11char_traitsIcEENS_9allocatorIcEEEERNS4_IS6_EEE21_ConstructTransactionC1B7v160006EPPS6_m, symObjAddr: 0xA8D0, symBinAddr: 0x10000C870, symSize: 0x30 }
  - { offsetInCU: 0x18E4A, offset: 0x18E4A, size: 0x8, addend: 0x0, symName: __ZNKSt3__113move_iteratorIPNS_12basic_stringIcNS_11char_traitsIcEENS_9allocatorIcEEEEEdeB7v160006Ev, symObjAddr: 0xA900, symBinAddr: 0x10000C8A0, symSize: 0x20 }
  - { offsetInCU: 0x18E70, offset: 0x18E70, size: 0x8, addend: 0x0, symName: __ZNSt3__113move_iteratorIPNS_12basic_stringIcNS_11char_traitsIcEENS_9allocatorIcEEEEEppB7v160006Ev, symObjAddr: 0xA920, symBinAddr: 0x10000C8C0, symSize: 0x20 }
  - { offsetInCU: 0x18E96, offset: 0x18E96, size: 0x8, addend: 0x0, symName: __ZNSt3__114__split_bufferINS_12basic_stringIcNS_11char_traitsIcEENS_9allocatorIcEEEERNS4_IS6_EEE21_ConstructTransactionD1B7v160006Ev, symObjAddr: 0xA940, symBinAddr: 0x10000C8E0, symSize: 0x20 }
  - { offsetInCU: 0x18EC0, offset: 0x18EC0, size: 0x8, addend: 0x0, symName: __ZNKSt3__113move_iteratorIPNS_12basic_stringIcNS_11char_traitsIcEENS_9allocatorIcEEEEE4baseB7v160006Ev, symObjAddr: 0xA9D0, symBinAddr: 0x10000C970, symSize: 0x20 }
  - { offsetInCU: 0x18EE6, offset: 0x18EE6, size: 0x8, addend: 0x0, symName: __ZNSt3__114__split_bufferINS_12basic_stringIcNS_11char_traitsIcEENS_9allocatorIcEEEERNS4_IS6_EEE21_ConstructTransactionC2B7v160006EPPS6_m, symObjAddr: 0xA9F0, symBinAddr: 0x10000C990, symSize: 0x40 }
  - { offsetInCU: 0x18F2C, offset: 0x18F2C, size: 0x8, addend: 0x0, symName: __ZNSt3__114__split_bufferINS_12basic_stringIcNS_11char_traitsIcEENS_9allocatorIcEEEERNS4_IS6_EEE21_ConstructTransactionD2B7v160006Ev, symObjAddr: 0xAA30, symBinAddr: 0x10000C9D0, symSize: 0x20 }
  - { offsetInCU: 0x18F56, offset: 0x18F56, size: 0x8, addend: 0x0, symName: __ZNSt3__113move_iteratorIPNS_12basic_stringIcNS_11char_traitsIcEENS_9allocatorIcEEEEEC2B7v160006ES7_, symObjAddr: 0xAA50, symBinAddr: 0x10000C9F0, symSize: 0x20 }
  - { offsetInCU: 0x18F8E, offset: 0x18F8E, size: 0x8, addend: 0x0, symName: __ZNKSt3__16vectorINS_12basic_stringIcNS_11char_traitsIcEENS_9allocatorIcEEEENS4_IS6_EEE17__annotate_deleteB7v160006Ev, symObjAddr: 0xAA70, symBinAddr: 0x10000CA10, symSize: 0xB0 }
  - { offsetInCU: 0x18FB4, offset: 0x18FB4, size: 0x8, addend: 0x0, symName: __ZNSt3__116reverse_iteratorIPNS_12basic_stringIcNS_11char_traitsIcEENS_9allocatorIcEEEEEC1B7v160006ES7_, symObjAddr: 0xACA0, symBinAddr: 0x10000CC40, symSize: 0x30 }
  - { offsetInCU: 0x18FEC, offset: 0x18FEC, size: 0x8, addend: 0x0, symName: __ZNKSt3__116reverse_iteratorIPNS_12basic_stringIcNS_11char_traitsIcEENS_9allocatorIcEEEEE4baseB7v160006Ev, symObjAddr: 0xACD0, symBinAddr: 0x10000CC70, symSize: 0x20 }
  - { offsetInCU: 0x19012, offset: 0x19012, size: 0x8, addend: 0x0, symName: __ZNKSt3__16vectorINS_12basic_stringIcNS_11char_traitsIcEENS_9allocatorIcEEEENS4_IS6_EEE14__annotate_newB7v160006Em, symObjAddr: 0xADF0, symBinAddr: 0x10000CD90, symSize: 0xA0 }
  - { offsetInCU: 0x19047, offset: 0x19047, size: 0x8, addend: 0x0, symName: __ZNSt3__129_AllocatorDestroyRangeReverseINS_9allocatorINS_12basic_stringIcNS_11char_traitsIcEENS1_IcEEEEEENS_16reverse_iteratorIPS6_EEEC1B7v160006ERS7_RSA_SD_, symObjAddr: 0xAF00, symBinAddr: 0x10000CEA0, symSize: 0x40 }
  - { offsetInCU: 0x1909E, offset: 0x1909E, size: 0x8, addend: 0x0, symName: __ZNKSt3__116reverse_iteratorIPNS_12basic_stringIcNS_11char_traitsIcEENS_9allocatorIcEEEEEdeB7v160006Ev, symObjAddr: 0xAFA0, symBinAddr: 0x10000CF40, symSize: 0x30 }
  - { offsetInCU: 0x190D2, offset: 0x190D2, size: 0x8, addend: 0x0, symName: __ZNSt3__116reverse_iteratorIPNS_12basic_stringIcNS_11char_traitsIcEENS_9allocatorIcEEEEEppB7v160006Ev, symObjAddr: 0xAFD0, symBinAddr: 0x10000CF70, symSize: 0x20 }
  - { offsetInCU: 0x190F8, offset: 0x190F8, size: 0x8, addend: 0x0, symName: __ZNSt3__128__exception_guard_exceptionsINS_29_AllocatorDestroyRangeReverseINS_9allocatorINS_12basic_stringIcNS_11char_traitsIcEENS2_IcEEEEEENS_16reverse_iteratorIPS7_EEEEE10__completeB7v160006Ev, symObjAddr: 0xAFF0, symBinAddr: 0x10000CF90, symSize: 0x20 }
  - { offsetInCU: 0x1911E, offset: 0x1911E, size: 0x8, addend: 0x0, symName: __ZNSt3__128__exception_guard_exceptionsINS_29_AllocatorDestroyRangeReverseINS_9allocatorINS_12basic_stringIcNS_11char_traitsIcEENS2_IcEEEEEENS_16reverse_iteratorIPS7_EEEEED1B7v160006Ev, symObjAddr: 0xB010, symBinAddr: 0x10000CFB0, symSize: 0x20 }
  - { offsetInCU: 0x19148, offset: 0x19148, size: 0x8, addend: 0x0, symName: __ZNSt3__128__exception_guard_exceptionsINS_29_AllocatorDestroyRangeReverseINS_9allocatorINS_12basic_stringIcNS_11char_traitsIcEENS2_IcEEEEEENS_16reverse_iteratorIPS7_EEEEEC1B7v160006ESC_, symObjAddr: 0xB030, symBinAddr: 0x10000CFD0, symSize: 0x40 }
  - { offsetInCU: 0x19180, offset: 0x19180, size: 0x8, addend: 0x0, symName: __ZNSt3__128__exception_guard_exceptionsINS_29_AllocatorDestroyRangeReverseINS_9allocatorINS_12basic_stringIcNS_11char_traitsIcEENS2_IcEEEEEENS_16reverse_iteratorIPS7_EEEEEC2B7v160006ESC_, symObjAddr: 0xB070, symBinAddr: 0x10000D010, symSize: 0x30 }
  - { offsetInCU: 0x191B8, offset: 0x191B8, size: 0x8, addend: 0x0, symName: __ZNSt3__129_AllocatorDestroyRangeReverseINS_9allocatorINS_12basic_stringIcNS_11char_traitsIcEENS1_IcEEEEEENS_16reverse_iteratorIPS6_EEEC2B7v160006ERS7_RSA_SD_, symObjAddr: 0xB0A0, symBinAddr: 0x10000D040, symSize: 0x40 }
  - { offsetInCU: 0x19214, offset: 0x19214, size: 0x8, addend: 0x0, symName: __ZNSt3__119__to_address_helperINS_16reverse_iteratorIPNS_12basic_stringIcNS_11char_traitsIcEENS_9allocatorIcEEEEEEvE6__callB7v160006ERKS9_, symObjAddr: 0xB0E0, symBinAddr: 0x10000D080, symSize: 0x40 }
  - { offsetInCU: 0x19237, offset: 0x19237, size: 0x8, addend: 0x0, symName: __ZNKSt3__116reverse_iteratorIPNS_12basic_stringIcNS_11char_traitsIcEENS_9allocatorIcEEEEEptB7v160006Ev, symObjAddr: 0xB120, symBinAddr: 0x10000D0C0, symSize: 0x20 }
  - { offsetInCU: 0x1925D, offset: 0x1925D, size: 0x8, addend: 0x0, symName: __ZNSt3__128__exception_guard_exceptionsINS_29_AllocatorDestroyRangeReverseINS_9allocatorINS_12basic_stringIcNS_11char_traitsIcEENS2_IcEEEEEENS_16reverse_iteratorIPS7_EEEEED2B7v160006Ev, symObjAddr: 0xB140, symBinAddr: 0x10000D0E0, symSize: 0x40 }
  - { offsetInCU: 0x19287, offset: 0x19287, size: 0x8, addend: 0x0, symName: __ZNKSt3__129_AllocatorDestroyRangeReverseINS_9allocatorINS_12basic_stringIcNS_11char_traitsIcEENS1_IcEEEEEENS_16reverse_iteratorIPS6_EEEclB7v160006Ev, symObjAddr: 0xB180, symBinAddr: 0x10000D120, symSize: 0xF0 }
  - { offsetInCU: 0x192AE, offset: 0x192AE, size: 0x8, addend: 0x0, symName: __ZNSt3__116reverse_iteratorINS0_IPNS_12basic_stringIcNS_11char_traitsIcEENS_9allocatorIcEEEEEEEC1B7v160006ES8_, symObjAddr: 0xB2E0, symBinAddr: 0x10000D280, symSize: 0x30 }
  - { offsetInCU: 0x192E6, offset: 0x192E6, size: 0x8, addend: 0x0, symName: __ZNSt3__116reverse_iteratorINS0_IPNS_12basic_stringIcNS_11char_traitsIcEENS_9allocatorIcEEEEEEEppB7v160006Ev, symObjAddr: 0xB380, symBinAddr: 0x10000D320, symSize: 0x30 }
  - { offsetInCU: 0x1930C, offset: 0x1930C, size: 0x8, addend: 0x0, symName: __ZNKSt3__116reverse_iteratorINS0_IPNS_12basic_stringIcNS_11char_traitsIcEENS_9allocatorIcEEEEEEE4baseB7v160006Ev, symObjAddr: 0xB3B0, symBinAddr: 0x10000D350, symSize: 0x20 }
  - { offsetInCU: 0x19337, offset: 0x19337, size: 0x8, addend: 0x0, symName: __ZNSt3__119__to_address_helperINS_16reverse_iteratorINS1_IPNS_12basic_stringIcNS_11char_traitsIcEENS_9allocatorIcEEEEEEEEvE6__callB7v160006ERKSA_, symObjAddr: 0xB3D0, symBinAddr: 0x10000D370, symSize: 0x40 }
  - { offsetInCU: 0x1935A, offset: 0x1935A, size: 0x8, addend: 0x0, symName: __ZNKSt3__116reverse_iteratorINS0_IPNS_12basic_stringIcNS_11char_traitsIcEENS_9allocatorIcEEEEEEEptB7v160006Ev, symObjAddr: 0xB410, symBinAddr: 0x10000D3B0, symSize: 0x20 }
  - { offsetInCU: 0x19380, offset: 0x19380, size: 0x8, addend: 0x0, symName: __ZNKSt3__116reverse_iteratorINS0_IPNS_12basic_stringIcNS_11char_traitsIcEENS_9allocatorIcEEEEEEEdeB7v160006Ev, symObjAddr: 0xB430, symBinAddr: 0x10000D3D0, symSize: 0x40 }
  - { offsetInCU: 0x193B4, offset: 0x193B4, size: 0x8, addend: 0x0, symName: __ZNSt3__116reverse_iteratorIPNS_12basic_stringIcNS_11char_traitsIcEENS_9allocatorIcEEEEEmmB7v160006Ev, symObjAddr: 0xB470, symBinAddr: 0x10000D410, symSize: 0x20 }
  - { offsetInCU: 0x193DA, offset: 0x193DA, size: 0x8, addend: 0x0, symName: __ZNSt3__116reverse_iteratorINS0_IPNS_12basic_stringIcNS_11char_traitsIcEENS_9allocatorIcEEEEEEEC2B7v160006ES8_, symObjAddr: 0xB490, symBinAddr: 0x10000D430, symSize: 0x40 }
  - { offsetInCU: 0x19412, offset: 0x19412, size: 0x8, addend: 0x0, symName: __ZNSt3__116reverse_iteratorIPNS_12basic_stringIcNS_11char_traitsIcEENS_9allocatorIcEEEEEC2B7v160006ES7_, symObjAddr: 0xB4D0, symBinAddr: 0x10000D470, symSize: 0x30 }
  - { offsetInCU: 0x1944A, offset: 0x1944A, size: 0x8, addend: 0x0, symName: __ZNSt3__129_AllocatorDestroyRangeReverseINS_9allocatorINS_12basic_stringIcNS_11char_traitsIcEENS1_IcEEEEEEPS6_EC1B7v160006ERS7_RS8_SB_, symObjAddr: 0xB560, symBinAddr: 0x10000D500, symSize: 0x40 }
  - { offsetInCU: 0x194A1, offset: 0x194A1, size: 0x8, addend: 0x0, symName: __ZNSt3__128__exception_guard_exceptionsINS_29_AllocatorDestroyRangeReverseINS_9allocatorINS_12basic_stringIcNS_11char_traitsIcEENS2_IcEEEEEEPS7_EEE10__completeB7v160006Ev, symObjAddr: 0xB5A0, symBinAddr: 0x10000D540, symSize: 0x20 }
  - { offsetInCU: 0x194C7, offset: 0x194C7, size: 0x8, addend: 0x0, symName: __ZNSt3__128__exception_guard_exceptionsINS_29_AllocatorDestroyRangeReverseINS_9allocatorINS_12basic_stringIcNS_11char_traitsIcEENS2_IcEEEEEEPS7_EEED1B7v160006Ev, symObjAddr: 0xB5C0, symBinAddr: 0x10000D560, symSize: 0x20 }
  - { offsetInCU: 0x194F1, offset: 0x194F1, size: 0x8, addend: 0x0, symName: __ZNSt3__128__exception_guard_exceptionsINS_29_AllocatorDestroyRangeReverseINS_9allocatorINS_12basic_stringIcNS_11char_traitsIcEENS2_IcEEEEEEPS7_EEEC1B7v160006ESA_, symObjAddr: 0xB5E0, symBinAddr: 0x10000D580, symSize: 0x40 }
  - { offsetInCU: 0x19529, offset: 0x19529, size: 0x8, addend: 0x0, symName: __ZNSt3__128__exception_guard_exceptionsINS_29_AllocatorDestroyRangeReverseINS_9allocatorINS_12basic_stringIcNS_11char_traitsIcEENS2_IcEEEEEEPS7_EEEC2B7v160006ESA_, symObjAddr: 0xB620, symBinAddr: 0x10000D5C0, symSize: 0x30 }
  - { offsetInCU: 0x19561, offset: 0x19561, size: 0x8, addend: 0x0, symName: __ZNSt3__129_AllocatorDestroyRangeReverseINS_9allocatorINS_12basic_stringIcNS_11char_traitsIcEENS1_IcEEEEEEPS6_EC2B7v160006ERS7_RS8_SB_, symObjAddr: 0xB650, symBinAddr: 0x10000D5F0, symSize: 0x40 }
  - { offsetInCU: 0x195B8, offset: 0x195B8, size: 0x8, addend: 0x0, symName: __ZNSt3__128__exception_guard_exceptionsINS_29_AllocatorDestroyRangeReverseINS_9allocatorINS_12basic_stringIcNS_11char_traitsIcEENS2_IcEEEEEEPS7_EEED2B7v160006Ev, symObjAddr: 0xB690, symBinAddr: 0x10000D630, symSize: 0x40 }
  - { offsetInCU: 0x195E2, offset: 0x195E2, size: 0x8, addend: 0x0, symName: __ZNKSt3__129_AllocatorDestroyRangeReverseINS_9allocatorINS_12basic_stringIcNS_11char_traitsIcEENS1_IcEEEEEEPS6_EclB7v160006Ev, symObjAddr: 0xB6D0, symBinAddr: 0x10000D670, symSize: 0x60 }
  - { offsetInCU: 0x19608, offset: 0x19608, size: 0x8, addend: 0x0, symName: __ZNSt3__114__split_bufferINS_12basic_stringIcNS_11char_traitsIcEENS_9allocatorIcEEEERNS4_IS6_EEED2Ev, symObjAddr: 0xB7A0, symBinAddr: 0x10000D740, symSize: 0x70 }
  - { offsetInCU: 0x19634, offset: 0x19634, size: 0x8, addend: 0x0, symName: __ZNSt3__114__split_bufferINS_12basic_stringIcNS_11char_traitsIcEENS_9allocatorIcEEEERNS4_IS6_EEE5clearB7v160006Ev, symObjAddr: 0xB810, symBinAddr: 0x10000D7B0, symSize: 0x20 }
  - { offsetInCU: 0x1965A, offset: 0x1965A, size: 0x8, addend: 0x0, symName: __ZNSt3__116allocator_traitsINS_9allocatorINS_12basic_stringIcNS_11char_traitsIcEENS1_IcEEEEEEE10deallocateB7v160006ERS7_PS6_m, symObjAddr: 0xB830, symBinAddr: 0x10000D7D0, symSize: 0x30 }
  - { offsetInCU: 0x1969C, offset: 0x1969C, size: 0x8, addend: 0x0, symName: __ZNKSt3__114__split_bufferINS_12basic_stringIcNS_11char_traitsIcEENS_9allocatorIcEEEERNS4_IS6_EEE8capacityB7v160006Ev, symObjAddr: 0xB860, symBinAddr: 0x10000D800, symSize: 0x40 }
  - { offsetInCU: 0x196C2, offset: 0x196C2, size: 0x8, addend: 0x0, symName: __ZNSt3__114__split_bufferINS_12basic_stringIcNS_11char_traitsIcEENS_9allocatorIcEEEERNS4_IS6_EEE17__destruct_at_endB7v160006EPS6_, symObjAddr: 0xB8A0, symBinAddr: 0x10000D840, symSize: 0x30 }
  - { offsetInCU: 0x196F6, offset: 0x196F6, size: 0x8, addend: 0x0, symName: __ZNSt3__114__split_bufferINS_12basic_stringIcNS_11char_traitsIcEENS_9allocatorIcEEEERNS4_IS6_EEE17__destruct_at_endB7v160006EPS6_NS_17integral_constantIbLb0EEE, symObjAddr: 0xB8D0, symBinAddr: 0x10000D870, symSize: 0x80 }
  - { offsetInCU: 0x19736, offset: 0x19736, size: 0x8, addend: 0x0, symName: __ZNSt3__19allocatorINS_12basic_stringIcNS_11char_traitsIcEENS0_IcEEEEE10deallocateB7v160006EPS5_m, symObjAddr: 0xB950, symBinAddr: 0x10000D8F0, symSize: 0x50 }
  - { offsetInCU: 0x19778, offset: 0x19778, size: 0x8, addend: 0x0, symName: __ZNKSt3__114__split_bufferINS_12basic_stringIcNS_11char_traitsIcEENS_9allocatorIcEEEERNS4_IS6_EEE9__end_capB7v160006Ev, symObjAddr: 0xBA10, symBinAddr: 0x10000D9B0, symSize: 0x20 }
  - { offsetInCU: 0x1979E, offset: 0x1979E, size: 0x8, addend: 0x0, symName: __ZNKSt3__117__compressed_pairIPNS_12basic_stringIcNS_11char_traitsIcEENS_9allocatorIcEEEERNS4_IS6_EEE5firstB7v160006Ev, symObjAddr: 0xBA30, symBinAddr: 0x10000D9D0, symSize: 0x20 }
  - { offsetInCU: 0x197C4, offset: 0x197C4, size: 0x8, addend: 0x0, symName: __ZNSt3__16chrono8durationIdNS_5ratioILl1ELl1EEEEC2B7v160006IxNS2_ILl1ELl1000000000EEEEERKNS1_IT_T0_EEPNS_9enable_ifIXaasr13__no_overflowIS8_S3_EE5valueooL_ZNS_17integral_constantIbLb1EE5valueEEaaeqsr13__no_overflowIS8_S3_E4typeE3denLi1Entsr23treat_as_floating_pointIS7_EE5valueEvE4typeE, symObjAddr: 0xBA50, symBinAddr: 0x10000D9F0, symSize: 0x50 }
  - { offsetInCU: 0x1981A, offset: 0x1981A, size: 0x8, addend: 0x0, symName: __ZNKSt3__16chrono8durationIxNS_5ratioILl1ELl1000000000EEEE5countB7v160006Ev, symObjAddr: 0xBB20, symBinAddr: 0x10000DAC0, symSize: 0x20 }
  - { offsetInCU: 0x1984A, offset: 0x1984A, size: 0x8, addend: 0x0, symName: __ZNSt3__16chrono8durationIdNS_5ratioILl1ELl1EEEEC1B7v160006IdEERKT_PNS_9enable_ifIXaasr14is_convertibleIS8_dEE5valueooL_ZNS_17integral_constantIbLb1EE5valueEEntsr23treat_as_floating_pointIS6_EE5valueEvE4typeE, symObjAddr: 0xBB40, symBinAddr: 0x10000DAE0, symSize: 0x30 }
  - { offsetInCU: 0x19896, offset: 0x19896, size: 0x8, addend: 0x0, symName: __ZNSt3__16chrono8durationIdNS_5ratioILl1ELl1EEEEC2B7v160006IdEERKT_PNS_9enable_ifIXaasr14is_convertibleIS8_dEE5valueooL_ZNS_17integral_constantIbLb1EE5valueEEntsr23treat_as_floating_pointIS6_EE5valueEvE4typeE, symObjAddr: 0xBB70, symBinAddr: 0x10000DB10, symSize: 0x30 }
  - { offsetInCU: 0x198E2, offset: 0x198E2, size: 0x8, addend: 0x0, symName: __ZNSt3__112basic_stringIcNS_11char_traitsIcEENS_9allocatorIcEEEC2B7v160006Ev, symObjAddr: 0xBBA0, symBinAddr: 0x10000DB40, symSize: 0x50 }
  - { offsetInCU: 0x19911, offset: 0x19911, size: 0x8, addend: 0x0, symName: __ZNSt3__117__compressed_pairINS_12basic_stringIcNS_11char_traitsIcEENS_9allocatorIcEEE5__repES5_EC1B7v160006INS_18__default_init_tagESA_EEOT_OT0_, symObjAddr: 0xBBF0, symBinAddr: 0x10000DB90, symSize: 0x30 }
  - { offsetInCU: 0x19969, offset: 0x19969, size: 0x8, addend: 0x0, symName: __ZNSt3__117__compressed_pairINS_12basic_stringIcNS_11char_traitsIcEENS_9allocatorIcEEE5__repES5_EC2B7v160006INS_18__default_init_tagESA_EEOT_OT0_, symObjAddr: 0xBC20, symBinAddr: 0x10000DBC0, symSize: 0x30 }
  - { offsetInCU: 0x199C1, offset: 0x199C1, size: 0x8, addend: 0x0, symName: __ZNSt3__122__compressed_pair_elemINS_12basic_stringIcNS_11char_traitsIcEENS_9allocatorIcEEE5__repELi0ELb0EEC2B7v160006ENS_18__default_init_tagE, symObjAddr: 0xBC50, symBinAddr: 0x10000DBF0, symSize: 0x10 }
  - { offsetInCU: 0x199F5, offset: 0x199F5, size: 0x8, addend: 0x0, symName: __ZNSt3__122__compressed_pair_elemINS_9allocatorIcEELi1ELb1EEC2B7v160006ENS_18__default_init_tagE, symObjAddr: 0xBC60, symBinAddr: 0x10000DC00, symSize: 0x20 }
  - { offsetInCU: 0x19A29, offset: 0x19A29, size: 0x8, addend: 0x0, symName: __ZNSt3__19allocatorIcEC2B7v160006Ev, symObjAddr: 0xBC80, symBinAddr: 0x10000DC20, symSize: 0x20 }
  - { offsetInCU: 0x19A53, offset: 0x19A53, size: 0x8, addend: 0x0, symName: __ZNSt3__116__non_trivial_ifILb1ENS_9allocatorIcEEEC2B7v160006Ev, symObjAddr: 0xBCA0, symBinAddr: 0x10000DC40, symSize: 0x10 }
  - { offsetInCU: 0x19A7D, offset: 0x19A7D, size: 0x8, addend: 0x0, symName: __ZNSt3__112basic_stringIcNS_11char_traitsIcEENS_9allocatorIcEEE13__move_assignB7v160006ERS5_NS_17integral_constantIbLb1EEE, symObjAddr: 0xBCB0, symBinAddr: 0x10000DC50, symSize: 0xD0 }
  - { offsetInCU: 0x19ABF, offset: 0x19ABF, size: 0x8, addend: 0x0, symName: __ZNSt3__116allocator_traitsINS_9allocatorIcEEE10deallocateB7v160006ERS2_Pcm, symObjAddr: 0xBD80, symBinAddr: 0x10000DD20, symSize: 0x30 }
  - { offsetInCU: 0x19B01, offset: 0x19B01, size: 0x8, addend: 0x0, symName: __ZNSt3__112basic_stringIcNS_11char_traitsIcEENS_9allocatorIcEEE7__allocB7v160006Ev, symObjAddr: 0xBDB0, symBinAddr: 0x10000DD50, symSize: 0x20 }
  - { offsetInCU: 0x19B27, offset: 0x19B27, size: 0x8, addend: 0x0, symName: __ZNSt3__112basic_stringIcNS_11char_traitsIcEENS_9allocatorIcEEE18__get_long_pointerB7v160006Ev, symObjAddr: 0xBDD0, symBinAddr: 0x10000DD70, symSize: 0x20 }
  - { offsetInCU: 0x19B4D, offset: 0x19B4D, size: 0x8, addend: 0x0, symName: __ZNKSt3__112basic_stringIcNS_11char_traitsIcEENS_9allocatorIcEEE14__get_long_capB7v160006Ev, symObjAddr: 0xBDF0, symBinAddr: 0x10000DD90, symSize: 0x30 }
  - { offsetInCU: 0x19B73, offset: 0x19B73, size: 0x8, addend: 0x0, symName: __ZNSt3__112basic_stringIcNS_11char_traitsIcEENS_9allocatorIcEEE19__move_assign_allocB7v160006ERS5_, symObjAddr: 0xBE20, symBinAddr: 0x10000DDC0, symSize: 0x30 }
  - { offsetInCU: 0x19BA8, offset: 0x19BA8, size: 0x8, addend: 0x0, symName: __ZNSt3__112basic_stringIcNS_11char_traitsIcEENS_9allocatorIcEEE16__set_short_sizeB7v160006Em, symObjAddr: 0xBE50, symBinAddr: 0x10000DDF0, symSize: 0x50 }
  - { offsetInCU: 0x19BDD, offset: 0x19BDD, size: 0x8, addend: 0x0, symName: __ZNSt3__111char_traitsIcE6assignERcRKc, symObjAddr: 0xBEA0, symBinAddr: 0x10000DE40, symSize: 0x20 }
  - { offsetInCU: 0x19C0E, offset: 0x19C0E, size: 0x8, addend: 0x0, symName: __ZNSt3__112basic_stringIcNS_11char_traitsIcEENS_9allocatorIcEEE19__get_short_pointerB7v160006Ev, symObjAddr: 0xBEC0, symBinAddr: 0x10000DE60, symSize: 0x30 }
  - { offsetInCU: 0x19C34, offset: 0x19C34, size: 0x8, addend: 0x0, symName: __ZNSt3__19allocatorIcE10deallocateB7v160006EPcm, symObjAddr: 0xBEF0, symBinAddr: 0x10000DE90, symSize: 0x40 }
  - { offsetInCU: 0x19C76, offset: 0x19C76, size: 0x8, addend: 0x0, symName: __ZNSt3__117__compressed_pairINS_12basic_stringIcNS_11char_traitsIcEENS_9allocatorIcEEE5__repES5_E6secondB7v160006Ev, symObjAddr: 0xBF30, symBinAddr: 0x10000DED0, symSize: 0x20 }
  - { offsetInCU: 0x19C9C, offset: 0x19C9C, size: 0x8, addend: 0x0, symName: __ZNSt3__122__compressed_pair_elemINS_9allocatorIcEELi1ELb1EE5__getB7v160006Ev, symObjAddr: 0xBF50, symBinAddr: 0x10000DEF0, symSize: 0x10 }
  - { offsetInCU: 0x19CC2, offset: 0x19CC2, size: 0x8, addend: 0x0, symName: __ZNSt3__112basic_stringIcNS_11char_traitsIcEENS_9allocatorIcEEE19__move_assign_allocB7v160006ERS5_NS_17integral_constantIbLb1EEE, symObjAddr: 0xBF60, symBinAddr: 0x10000DF00, symSize: 0x30 }
  - { offsetInCU: 0x19D02, offset: 0x19D02, size: 0x8, addend: 0x0, symName: __ZNSt3__114pointer_traitsIPcE10pointer_toB7v160006ERc, symObjAddr: 0xBF90, symBinAddr: 0x10000DF30, symSize: 0x10 }
  - { offsetInCU: 0x19D25, offset: 0x19D25, size: 0x8, addend: 0x0, symName: __ZNSt3__16vectorINS_12basic_stringIcNS_11char_traitsIcEENS_9allocatorIcEEEENS4_IS6_EEEC2ERKS8_, symObjAddr: 0xBFA0, symBinAddr: 0x10000DF40, symSize: 0x110 }
  - { offsetInCU: 0x19D85, offset: 0x19D85, size: 0x8, addend: 0x0, symName: __ZNSt3__116allocator_traitsINS_9allocatorINS_12basic_stringIcNS_11char_traitsIcEENS1_IcEEEEEEE37select_on_container_copy_constructionB7v160006IS7_vvEES7_RKS7_, symObjAddr: 0xC0B0, symBinAddr: 0x10000E050, symSize: 0x10 }
  - { offsetInCU: 0x19DB4, offset: 0x19DB4, size: 0x8, addend: 0x0, symName: __ZNSt3__16vectorINS_12basic_stringIcNS_11char_traitsIcEENS_9allocatorIcEEEENS4_IS6_EEE16__destroy_vectorC1ERS8_, symObjAddr: 0xC100, symBinAddr: 0x10000E0A0, symSize: 0x30 }
  - { offsetInCU: 0x19DED, offset: 0x19DED, size: 0x8, addend: 0x0, symName: __ZNSt3__16vectorINS_12basic_stringIcNS_11char_traitsIcEENS_9allocatorIcEEEENS4_IS6_EEE11__vallocateB7v160006Em, symObjAddr: 0xC130, symBinAddr: 0x10000E0D0, symSize: 0xA0 }
  - { offsetInCU: 0x19E31, offset: 0x19E31, size: 0x8, addend: 0x0, symName: __ZNSt3__16vectorINS_12basic_stringIcNS_11char_traitsIcEENS_9allocatorIcEEEENS4_IS6_EEE18__construct_at_endIPS6_Li0EEEvT_SB_m, symObjAddr: 0xC1D0, symBinAddr: 0x10000E170, symSize: 0x90 }
  - { offsetInCU: 0x19EA4, offset: 0x19EA4, size: 0x8, addend: 0x0, symName: __ZNSt3__128__exception_guard_exceptionsINS_6vectorINS_12basic_stringIcNS_11char_traitsIcEENS_9allocatorIcEEEENS5_IS7_EEE16__destroy_vectorEE10__completeB7v160006Ev, symObjAddr: 0xC260, symBinAddr: 0x10000E200, symSize: 0x20 }
  - { offsetInCU: 0x19ECA, offset: 0x19ECA, size: 0x8, addend: 0x0, symName: __ZNSt3__128__exception_guard_exceptionsINS_6vectorINS_12basic_stringIcNS_11char_traitsIcEENS_9allocatorIcEEEENS5_IS7_EEE16__destroy_vectorEED1B7v160006Ev, symObjAddr: 0xC280, symBinAddr: 0x10000E220, symSize: 0x20 }
  - { offsetInCU: 0x19EF4, offset: 0x19EF4, size: 0x8, addend: 0x0, symName: __ZNSt3__128__exception_guard_exceptionsINS_6vectorINS_12basic_stringIcNS_11char_traitsIcEENS_9allocatorIcEEEENS5_IS7_EEE16__destroy_vectorEEC1B7v160006ESA_, symObjAddr: 0xC2A0, symBinAddr: 0x10000E240, symSize: 0x30 }
  - { offsetInCU: 0x19F2C, offset: 0x19F2C, size: 0x8, addend: 0x0, symName: __ZNSt3__128__exception_guard_exceptionsINS_6vectorINS_12basic_stringIcNS_11char_traitsIcEENS_9allocatorIcEEEENS5_IS7_EEE16__destroy_vectorEEC2B7v160006ESA_, symObjAddr: 0xC2D0, symBinAddr: 0x10000E270, symSize: 0x20 }
  - { offsetInCU: 0x19F64, offset: 0x19F64, size: 0x8, addend: 0x0, symName: __ZNSt3__16vectorINS_12basic_stringIcNS_11char_traitsIcEENS_9allocatorIcEEEENS4_IS6_EEE16__destroy_vectorC2ERS8_, symObjAddr: 0xC2F0, symBinAddr: 0x10000E290, symSize: 0x20 }
  - { offsetInCU: 0x19F9D, offset: 0x19F9D, size: 0x8, addend: 0x0, symName: __ZNSt3__116allocator_traitsINS_9allocatorINS_12basic_stringIcNS_11char_traitsIcEENS1_IcEEEEEEE9constructB7v160006IS6_JRS6_EvEEvRS7_PT_DpOT0_, symObjAddr: 0xC410, symBinAddr: 0x10000E3B0, symSize: 0x30 }
  - { offsetInCU: 0x19FF4, offset: 0x19FF4, size: 0x8, addend: 0x0, symName: __ZNSt3__19allocatorINS_12basic_stringIcNS_11char_traitsIcEENS0_IcEEEEE9constructB7v160006IS5_JRS5_EEEvPT_DpOT0_, symObjAddr: 0xC440, symBinAddr: 0x10000E3E0, symSize: 0x30 }
  - { offsetInCU: 0x1A04A, offset: 0x1A04A, size: 0x8, addend: 0x0, symName: __ZNSt3__128__exception_guard_exceptionsINS_6vectorINS_12basic_stringIcNS_11char_traitsIcEENS_9allocatorIcEEEENS5_IS7_EEE16__destroy_vectorEED2B7v160006Ev, symObjAddr: 0xC470, symBinAddr: 0x10000E410, symSize: 0x40 }
  - { offsetInCU: 0x1A074, offset: 0x1A074, size: 0x8, addend: 0x0, symName: __ZNSt3__16vectorINS_12basic_stringIcNS_11char_traitsIcEENS_9allocatorIcEEEENS4_IS6_EEE16__destroy_vectorclB7v160006Ev, symObjAddr: 0xC4B0, symBinAddr: 0x10000E450, symSize: 0x90 }
  - { offsetInCU: 0x1A09A, offset: 0x1A09A, size: 0x8, addend: 0x0, symName: __ZNSt3__16vectorINS_12basic_stringIcNS_11char_traitsIcEENS_9allocatorIcEEEENS4_IS6_EEE7__clearB7v160006Ev, symObjAddr: 0xC550, symBinAddr: 0x10000E4F0, symSize: 0x20 }
  - { offsetInCU: 0x1A0C0, offset: 0x1A0C0, size: 0x8, addend: 0x0, symName: __ZNSt3__16vectorINS_12basic_stringIcNS_11char_traitsIcEENS_9allocatorIcEEEENS4_IS6_EEED2B7v160006Ev, symObjAddr: 0xC570, symBinAddr: 0x10000E510, symSize: 0x40 }
  - { offsetInCU: 0x1A0EA, offset: 0x1A0EA, size: 0x8, addend: 0x0, symName: __ZNSt3__111char_traitsIcE6lengthEPKc, symObjAddr: 0xC5B0, symBinAddr: 0x10000E550, symSize: 0x30 }
  - { offsetInCU: 0x1A10D, offset: 0x1A10D, size: 0x8, addend: 0x0, symName: __ZNSt3__112basic_stringIcNS_11char_traitsIcEENS_9allocatorIcEEEC2B7v160006IDnEEPKc, symObjAddr: 0xC600, symBinAddr: 0x10000E5A0, symSize: 0x60 }
  - { offsetInCU: 0x1A14B, offset: 0x1A14B, size: 0x8, addend: 0x0, symName: __ZNSt3__16vectorINS_12basic_stringIcNS_11char_traitsIcEENS_9allocatorIcEEEENS4_IS6_EEEC2B7v160006ESt16initializer_listIS6_E, symObjAddr: 0xC660, symBinAddr: 0x10000E600, symSize: 0x120 }
  - { offsetInCU: 0x1A19B, offset: 0x1A19B, size: 0x8, addend: 0x0, symName: __ZNSt3__117__compressed_pairIPNS_12basic_stringIcNS_11char_traitsIcEENS_9allocatorIcEEEENS4_IS6_EEEC1B7v160006IDnNS_18__default_init_tagEEEOT_OT0_, symObjAddr: 0xC780, symBinAddr: 0x10000E720, symSize: 0x30 }
  - { offsetInCU: 0x1A1F3, offset: 0x1A1F3, size: 0x8, addend: 0x0, symName: __ZNKSt16initializer_listINSt3__112basic_stringIcNS0_11char_traitsIcEENS0_9allocatorIcEEEEE4sizeB7v160006Ev, symObjAddr: 0xC7B0, symBinAddr: 0x10000E750, symSize: 0x20 }
  - { offsetInCU: 0x1A219, offset: 0x1A219, size: 0x8, addend: 0x0, symName: __ZNSt3__16vectorINS_12basic_stringIcNS_11char_traitsIcEENS_9allocatorIcEEEENS4_IS6_EEE18__construct_at_endIPKS6_Li0EEEvT_SC_m, symObjAddr: 0xC7D0, symBinAddr: 0x10000E770, symSize: 0x90 }
  - { offsetInCU: 0x1A28C, offset: 0x1A28C, size: 0x8, addend: 0x0, symName: __ZNKSt16initializer_listINSt3__112basic_stringIcNS0_11char_traitsIcEENS0_9allocatorIcEEEEE5beginB7v160006Ev, symObjAddr: 0xC860, symBinAddr: 0x10000E800, symSize: 0x20 }
  - { offsetInCU: 0x1A2B2, offset: 0x1A2B2, size: 0x8, addend: 0x0, symName: __ZNKSt16initializer_listINSt3__112basic_stringIcNS0_11char_traitsIcEENS0_9allocatorIcEEEEE3endB7v160006Ev, symObjAddr: 0xC880, symBinAddr: 0x10000E820, symSize: 0x20 }
  - { offsetInCU: 0x1A2D8, offset: 0x1A2D8, size: 0x8, addend: 0x0, symName: __ZNSt3__117__compressed_pairIPNS_12basic_stringIcNS_11char_traitsIcEENS_9allocatorIcEEEENS4_IS6_EEEC2B7v160006IDnNS_18__default_init_tagEEEOT_OT0_, symObjAddr: 0xC8A0, symBinAddr: 0x10000E840, symSize: 0x40 }
  - { offsetInCU: 0x1A330, offset: 0x1A330, size: 0x8, addend: 0x0, symName: __ZNSt3__122__compressed_pair_elemINS_9allocatorINS_12basic_stringIcNS_11char_traitsIcEENS1_IcEEEEEELi1ELb1EEC2B7v160006ENS_18__default_init_tagE, symObjAddr: 0xC8E0, symBinAddr: 0x10000E880, symSize: 0x20 }
  - { offsetInCU: 0x1A364, offset: 0x1A364, size: 0x8, addend: 0x0, symName: __ZNSt3__19allocatorINS_12basic_stringIcNS_11char_traitsIcEENS0_IcEEEEEC2B7v160006Ev, symObjAddr: 0xC900, symBinAddr: 0x10000E8A0, symSize: 0x20 }
  - { offsetInCU: 0x1A38E, offset: 0x1A38E, size: 0x8, addend: 0x0, symName: __ZNSt3__116__non_trivial_ifILb1ENS_9allocatorINS_12basic_stringIcNS_11char_traitsIcEENS1_IcEEEEEEEC2B7v160006Ev, symObjAddr: 0xC920, symBinAddr: 0x10000E8C0, symSize: 0x10 }
  - { offsetInCU: 0x1A3B8, offset: 0x1A3B8, size: 0x8, addend: 0x0, symName: __ZNSt3__116allocator_traitsINS_9allocatorINS_12basic_stringIcNS_11char_traitsIcEENS1_IcEEEEEEE9constructB7v160006IS6_JRKS6_EvEEvRS7_PT_DpOT0_, symObjAddr: 0xCA30, symBinAddr: 0x10000E9D0, symSize: 0x30 }
  - { offsetInCU: 0x1A40F, offset: 0x1A40F, size: 0x8, addend: 0x0, symName: __ZNSt3__19allocatorINS_12basic_stringIcNS_11char_traitsIcEENS0_IcEEEEE9constructB7v160006IS5_JRKS5_EEEvPT_DpOT0_, symObjAddr: 0xCA60, symBinAddr: 0x10000EA00, symSize: 0x30 }
  - { offsetInCU: 0x1A465, offset: 0x1A465, size: 0x8, addend: 0x0, symName: __ZNKSt3__112basic_stringIcNS_11char_traitsIcEENS_9allocatorIcEEE15__get_long_sizeB7v160006Ev, symObjAddr: 0xCA90, symBinAddr: 0x10000EA30, symSize: 0x20 }
  - { offsetInCU: 0x1A48B, offset: 0x1A48B, size: 0x8, addend: 0x0, symName: __ZNKSt3__112basic_stringIcNS_11char_traitsIcEENS_9allocatorIcEEE16__get_short_sizeB7v160006Ev, symObjAddr: 0xCAB0, symBinAddr: 0x10000EA50, symSize: 0x30 }
  - { offsetInCU: 0x1A4B1, offset: 0x1A4B1, size: 0x8, addend: 0x0, symName: __ZNSt3__19allocatorIcEC1B7v160006Ev, symObjAddr: 0xCAE0, symBinAddr: 0x10000EA80, symSize: 0x20 }
  - { offsetInCU: 0x1A4DB, offset: 0x1A4DB, size: 0x8, addend: 0x0, symName: __ZNSt3__111char_traitsIcE7compareEPKcS3_m, symObjAddr: 0xCB00, symBinAddr: 0x10000EAA0, symSize: 0x60 }
  - { offsetInCU: 0x1A51A, offset: 0x1A51A, size: 0x8, addend: 0x0, symName: __ZNSt3__112basic_stringIcNS_11char_traitsIcEENS_9allocatorIcEEE13__get_pointerB7v160006Ev, symObjAddr: 0xCB90, symBinAddr: 0x10000EB30, symSize: 0x50 }
  - { offsetInCU: 0x1A540, offset: 0x1A540, size: 0x8, addend: 0x0, symName: __ZNSt3__16vectorINS_12basic_stringIcNS_11char_traitsIcEENS_9allocatorIcEEEENS4_IS6_EEEC2B7v160006Ev, symObjAddr: 0xCBE0, symBinAddr: 0x10000EB80, symSize: 0x60 }
  - { offsetInCU: 0x1A56A, offset: 0x1A56A, size: 0x8, addend: 0x0, symName: __ZNSt3__16vectorINS_12basic_stringIcNS_11char_traitsIcEENS_9allocatorIcEEEENS4_IS6_EEE22__construct_one_at_endB7v160006IJRKS6_EEEvDpOT_, symObjAddr: 0xCC40, symBinAddr: 0x10000EBE0, symSize: 0x90 }
  - { offsetInCU: 0x1A5B9, offset: 0x1A5B9, size: 0x8, addend: 0x0, symName: __ZNSt3__16vectorINS_12basic_stringIcNS_11char_traitsIcEENS_9allocatorIcEEEENS4_IS6_EEE21__push_back_slow_pathIRKS6_EEvOT_, symObjAddr: 0xCCD0, symBinAddr: 0x10000EC70, symSize: 0xD0 }
  - { offsetInCU: 0x1A617, offset: 0x1A617, size: 0x8, addend: 0x0, symName: __ZNKSt3__16vectorINS_12basic_stringIcNS_11char_traitsIcEENS_9allocatorIcEEEENS4_IS6_EEE11__make_iterB7v160006EPKS6_, symObjAddr: 0xCED0, symBinAddr: 0x10000EE70, symSize: 0x30 }
  - { offsetInCU: 0x1A64C, offset: 0x1A64C, size: 0x8, addend: 0x0, symName: __ZNSt3__111__wrap_iterIPKNS_12basic_stringIcNS_11char_traitsIcEENS_9allocatorIcEEEEEC1B7v160006EPKvS8_, symObjAddr: 0xCF00, symBinAddr: 0x10000EEA0, symSize: 0x30 }
  - { offsetInCU: 0x1A692, offset: 0x1A692, size: 0x8, addend: 0x0, symName: __ZNSt3__111__wrap_iterIPKNS_12basic_stringIcNS_11char_traitsIcEENS_9allocatorIcEEEEEC2B7v160006EPKvS8_, symObjAddr: 0xCF30, symBinAddr: 0x10000EED0, symSize: 0x20 }
  - { offsetInCU: 0x1A6E2, offset: 0x1A6E2, size: 0x8, addend: 0x0, symName: __ZNKSt3__110__equal_toclB7v160006INS_12basic_stringIcNS_11char_traitsIcEENS_9allocatorIcEEEES7_EEbRKT_RKT0_, symObjAddr: 0xD090, symBinAddr: 0x10000F030, symSize: 0x30 }
  - { offsetInCU: 0x1A736, offset: 0x1A736, size: 0x8, addend: 0x0, symName: __ZNSt3__14pairI11TreeDiagramS1_EC2B7v160006ILb1ELPv0EEERKS1_S6_, symObjAddr: 0xD0C0, symBinAddr: 0x10000F060, symSize: 0x60 }
  - { offsetInCU: 0x1A796, offset: 0x1A796, size: 0x8, addend: 0x0, symName: __ZNKSt3__16__lessIiiEclB7v160006ERKiS3_, symObjAddr: 0xD170, symBinAddr: 0x10000F110, symSize: 0x30 }
  - { offsetInCU: 0x1A7D8, offset: 0x1A7D8, size: 0x8, addend: 0x0, symName: __ZNSt3__16vectorINS_12basic_stringIcNS_11char_traitsIcEENS_9allocatorIcEEEENS4_IS6_EEE13__move_assignERS8_NS_17integral_constantIbLb1EEE, symObjAddr: 0xD1A0, symBinAddr: 0x10000F140, symSize: 0xA0 }
  - { offsetInCU: 0x1A81A, offset: 0x1A81A, size: 0x8, addend: 0x0, symName: __ZNSt3__16vectorINS_12basic_stringIcNS_11char_traitsIcEENS_9allocatorIcEEEENS4_IS6_EEE13__vdeallocateEv, symObjAddr: 0xD240, symBinAddr: 0x10000F1E0, symSize: 0x80 }
  - { offsetInCU: 0x1A842, offset: 0x1A842, size: 0x8, addend: 0x0, symName: __ZNSt3__16vectorINS_12basic_stringIcNS_11char_traitsIcEENS_9allocatorIcEEEENS4_IS6_EEE19__move_assign_allocB7v160006ERS8_, symObjAddr: 0xD2C0, symBinAddr: 0x10000F260, symSize: 0x30 }
  - { offsetInCU: 0x1A877, offset: 0x1A877, size: 0x8, addend: 0x0, symName: __ZNSt3__16vectorINS_12basic_stringIcNS_11char_traitsIcEENS_9allocatorIcEEEENS4_IS6_EEE5clearB7v160006Ev, symObjAddr: 0xD2F0, symBinAddr: 0x10000F290, symSize: 0x50 }
  - { offsetInCU: 0x1A8AC, offset: 0x1A8AC, size: 0x8, addend: 0x0, symName: __ZNSt3__16vectorINS_12basic_stringIcNS_11char_traitsIcEENS_9allocatorIcEEEENS4_IS6_EEE19__move_assign_allocB7v160006ERS8_NS_17integral_constantIbLb1EEE, symObjAddr: 0xD340, symBinAddr: 0x10000F2E0, symSize: 0x30 }
  - { offsetInCU: 0x1A8F6, offset: 0x1A8F6, size: 0x8, addend: 0x0, symName: __ZNSt3__116allocator_traitsINS_9allocatorIcEEE37select_on_container_copy_constructionB7v160006IS2_vvEES2_RKS2_, symObjAddr: 0xD370, symBinAddr: 0x10000F310, symSize: 0x10 }
  - { offsetInCU: 0x1A925, offset: 0x1A925, size: 0x8, addend: 0x0, symName: __ZNKSt3__112basic_stringIcNS_11char_traitsIcEENS_9allocatorIcEEE13get_allocatorB7v160006Ev, symObjAddr: 0xD380, symBinAddr: 0x10000F320, symSize: 0x20 }
  - { offsetInCU: 0x1A94B, offset: 0x1A94B, size: 0x8, addend: 0x0, symName: __ZNSt3__112basic_stringIcNS_11char_traitsIcEENS_9allocatorIcEEEC1B7v160006ENS_24__uninitialized_size_tagEmRKS4_, symObjAddr: 0xD3A0, symBinAddr: 0x10000F340, symSize: 0x30 }
  - { offsetInCU: 0x1A99E, offset: 0x1A99E, size: 0x8, addend: 0x0, symName: __ZNSt3__111char_traitsIcE4copyEPcPKcm, symObjAddr: 0xD3E0, symBinAddr: 0x10000F380, symSize: 0x70 }
  - { offsetInCU: 0x1A9DD, offset: 0x1A9DD, size: 0x8, addend: 0x0, symName: __ZNSt3__111char_traitsIcE6assignEPcmc, symObjAddr: 0xD450, symBinAddr: 0x10000F3F0, symSize: 0x40 }
  - { offsetInCU: 0x1AA1C, offset: 0x1AA1C, size: 0x8, addend: 0x0, symName: __ZNKSt3__112basic_stringIcNS_11char_traitsIcEENS_9allocatorIcEEE7__allocB7v160006Ev, symObjAddr: 0xD490, symBinAddr: 0x10000F430, symSize: 0x20 }
  - { offsetInCU: 0x1AA42, offset: 0x1AA42, size: 0x8, addend: 0x0, symName: __ZNKSt3__117__compressed_pairINS_12basic_stringIcNS_11char_traitsIcEENS_9allocatorIcEEE5__repES5_E6secondB7v160006Ev, symObjAddr: 0xD4B0, symBinAddr: 0x10000F450, symSize: 0x20 }
  - { offsetInCU: 0x1AA68, offset: 0x1AA68, size: 0x8, addend: 0x0, symName: __ZNKSt3__122__compressed_pair_elemINS_9allocatorIcEELi1ELb1EE5__getB7v160006Ev, symObjAddr: 0xD4D0, symBinAddr: 0x10000F470, symSize: 0x10 }
  - { offsetInCU: 0x1AA8E, offset: 0x1AA8E, size: 0x8, addend: 0x0, symName: __ZNSt3__112basic_stringIcNS_11char_traitsIcEENS_9allocatorIcEEEC2B7v160006ENS_24__uninitialized_size_tagEmRKS4_, symObjAddr: 0xD4E0, symBinAddr: 0x10000F480, symSize: 0x120 }
  - { offsetInCU: 0x1AB0F, offset: 0x1AB0F, size: 0x8, addend: 0x0, symName: __ZNSt3__117__compressed_pairINS_12basic_stringIcNS_11char_traitsIcEENS_9allocatorIcEEE5__repES5_EC1B7v160006INS_18__default_init_tagERKS5_EEOT_OT0_, symObjAddr: 0xD600, symBinAddr: 0x10000F5A0, symSize: 0x30 }
  - { offsetInCU: 0x1AB67, offset: 0x1AB67, size: 0x8, addend: 0x0, symName: __ZNKSt3__112basic_stringIcNS_11char_traitsIcEENS_9allocatorIcEEE8max_sizeB7v160006Ev, symObjAddr: 0xD630, symBinAddr: 0x10000F5D0, symSize: 0xA0 }
  - { offsetInCU: 0x1ABB9, offset: 0x1ABB9, size: 0x8, addend: 0x0, symName: __ZNKSt3__112basic_stringIcNS_11char_traitsIcEENS_9allocatorIcEEE20__throw_length_errorB7v160006Ev, symObjAddr: 0xD6D0, symBinAddr: 0x10000F670, symSize: 0x20 }
  - { offsetInCU: 0x1ABDF, offset: 0x1ABDF, size: 0x8, addend: 0x0, symName: __ZNSt3__112basic_stringIcNS_11char_traitsIcEENS_9allocatorIcEEE13__fits_in_ssoB7v160006Em, symObjAddr: 0xD6F0, symBinAddr: 0x10000F690, symSize: 0x20 }
  - { offsetInCU: 0x1AC03, offset: 0x1AC03, size: 0x8, addend: 0x0, symName: __ZNSt3__112basic_stringIcNS_11char_traitsIcEENS_9allocatorIcEEE11__recommendB7v160006Em, symObjAddr: 0xD710, symBinAddr: 0x10000F6B0, symSize: 0x70 }
  - { offsetInCU: 0x1AC36, offset: 0x1AC36, size: 0x8, addend: 0x0, symName: __ZNSt3__116allocator_traitsINS_9allocatorIcEEE8allocateB7v160006ERS2_m, symObjAddr: 0xD780, symBinAddr: 0x10000F720, symSize: 0x30 }
  - { offsetInCU: 0x1AC69, offset: 0x1AC69, size: 0x8, addend: 0x0, symName: __ZNSt3__112basic_stringIcNS_11char_traitsIcEENS_9allocatorIcEEE16__begin_lifetimeB7v160006EPcm, symObjAddr: 0xD7B0, symBinAddr: 0x10000F750, symSize: 0x10 }
  - { offsetInCU: 0x1AC9C, offset: 0x1AC9C, size: 0x8, addend: 0x0, symName: __ZNSt3__112basic_stringIcNS_11char_traitsIcEENS_9allocatorIcEEE14__set_long_capB7v160006Em, symObjAddr: 0xD7C0, symBinAddr: 0x10000F760, symSize: 0x70 }
  - { offsetInCU: 0x1ACD1, offset: 0x1ACD1, size: 0x8, addend: 0x0, symName: __ZNSt3__112basic_stringIcNS_11char_traitsIcEENS_9allocatorIcEEE18__set_long_pointerB7v160006EPc, symObjAddr: 0xD830, symBinAddr: 0x10000F7D0, symSize: 0x30 }
  - { offsetInCU: 0x1AD06, offset: 0x1AD06, size: 0x8, addend: 0x0, symName: __ZNSt3__112basic_stringIcNS_11char_traitsIcEENS_9allocatorIcEEE15__set_long_sizeB7v160006Em, symObjAddr: 0xD860, symBinAddr: 0x10000F800, symSize: 0x30 }
  - { offsetInCU: 0x1AD3B, offset: 0x1AD3B, size: 0x8, addend: 0x0, symName: __ZNSt3__117__compressed_pairINS_12basic_stringIcNS_11char_traitsIcEENS_9allocatorIcEEE5__repES5_EC2B7v160006INS_18__default_init_tagERKS5_EEOT_OT0_, symObjAddr: 0xD890, symBinAddr: 0x10000F830, symSize: 0x40 }
  - { offsetInCU: 0x1AD93, offset: 0x1AD93, size: 0x8, addend: 0x0, symName: __ZNSt3__122__compressed_pair_elemINS_9allocatorIcEELi1ELb1EEC2B7v160006IRKS2_vEEOT_, symObjAddr: 0xD8D0, symBinAddr: 0x10000F870, symSize: 0x10 }
  - { offsetInCU: 0x1ADD5, offset: 0x1ADD5, size: 0x8, addend: 0x0, symName: __ZNSt3__116allocator_traitsINS_9allocatorIcEEE8max_sizeB7v160006IS2_vEEmRKS2_, symObjAddr: 0xD8E0, symBinAddr: 0x10000F880, symSize: 0x20 }
  - { offsetInCU: 0x1AE03, offset: 0x1AE03, size: 0x8, addend: 0x0, symName: __ZNSt3__114numeric_limitsImE3maxB7v160006Ev, symObjAddr: 0xD900, symBinAddr: 0x10000F8A0, symSize: 0x10 }
  - { offsetInCU: 0x1AE17, offset: 0x1AE17, size: 0x8, addend: 0x0, symName: __ZNKSt3__19allocatorIcE8max_sizeB7v160006Ev, symObjAddr: 0xD910, symBinAddr: 0x10000F8B0, symSize: 0x20 }
  - { offsetInCU: 0x1AE3D, offset: 0x1AE3D, size: 0x8, addend: 0x0, symName: __ZNSt3__123__libcpp_numeric_limitsImLb1EE3maxB7v160006Ev, symObjAddr: 0xD930, symBinAddr: 0x10000F8D0, symSize: 0x10 }
  - { offsetInCU: 0x1AE51, offset: 0x1AE51, size: 0x8, addend: 0x0, symName: __ZNSt3__112basic_stringIcNS_11char_traitsIcEENS_9allocatorIcEEE10__align_itB7v160006ILm16EEEmm, symObjAddr: 0xD940, symBinAddr: 0x10000F8E0, symSize: 0x20 }
  - { offsetInCU: 0x1AE7F, offset: 0x1AE7F, size: 0x8, addend: 0x0, symName: __ZNSt3__19allocatorIcE8allocateB7v160006Em, symObjAddr: 0xD960, symBinAddr: 0x10000F900, symSize: 0x50 }
  - { offsetInCU: 0x1AED6, offset: 0x1AED6, size: 0x8, addend: 0x0, symName: __ZNKSt3__114__copy_trivialclB7v160006IKccLi0EEENS_4pairIPT_PT0_EES5_S5_S7_, symObjAddr: 0xDBB0, symBinAddr: 0x10000FB50, symSize: 0x40 }
  - { offsetInCU: 0x1AF5C, offset: 0x1AF5C, size: 0x8, addend: 0x0, symName: __ZNSt3__14pairIPKcS2_EC1B7v160006IS2_S2_LPv0EEEOT_OT0_, symObjAddr: 0xDD00, symBinAddr: 0x10000FCA0, symSize: 0x30 }
  - { offsetInCU: 0x1AFBA, offset: 0x1AFBA, size: 0x8, addend: 0x0, symName: __ZNSt3__14pairIPKcS2_EC2B7v160006IS2_S2_LPv0EEEOT_OT0_, symObjAddr: 0xDD30, symBinAddr: 0x10000FCD0, symSize: 0x30 }
  - { offsetInCU: 0x1B018, offset: 0x1B018, size: 0x8, addend: 0x0, symName: __ZNSt3__118__unwrap_iter_implIPKcLb1EE8__unwrapB7v160006ES2_, symObjAddr: 0xDD60, symBinAddr: 0x10000FD00, symSize: 0x20 }
  - { offsetInCU: 0x1B045, offset: 0x1B045, size: 0x8, addend: 0x0, symName: __ZNSt3__14pairIPKcPcEC1B7v160006IRS2_S3_LPv0EEEOT_OT0_, symObjAddr: 0xDE20, symBinAddr: 0x10000FDC0, symSize: 0x30 }
  - { offsetInCU: 0x1B0A3, offset: 0x1B0A3, size: 0x8, addend: 0x0, symName: __ZNSt3__14pairIPKcPcEC2B7v160006IRS2_S3_LPv0EEEOT_OT0_, symObjAddr: 0xDE50, symBinAddr: 0x10000FDF0, symSize: 0x30 }
  - { offsetInCU: 0x1B101, offset: 0x1B101, size: 0x8, addend: 0x0, symName: __ZNSt3__118__unwrap_iter_implIPcLb1EE8__unwrapB7v160006ES1_, symObjAddr: 0xDE80, symBinAddr: 0x10000FE20, symSize: 0x20 }
  - { offsetInCU: 0x1B124, offset: 0x1B124, size: 0x8, addend: 0x0, symName: __ZNSt3__14pairIPKcPcEC1B7v160006IS2_S3_LPv0EEEOT_OT0_, symObjAddr: 0xDEA0, symBinAddr: 0x10000FE40, symSize: 0x30 }
  - { offsetInCU: 0x1B182, offset: 0x1B182, size: 0x8, addend: 0x0, symName: __ZNSt3__14pairIPKcPcEC2B7v160006IS2_S3_LPv0EEEOT_OT0_, symObjAddr: 0xDED0, symBinAddr: 0x10000FE70, symSize: 0x30 }
  - { offsetInCU: 0x1B1E0, offset: 0x1B1E0, size: 0x8, addend: 0x0, symName: __ZNSt3__118__unwrap_iter_implIPKcLb1EE8__rewrapB7v160006ES2_S2_, symObjAddr: 0xDF40, symBinAddr: 0x10000FEE0, symSize: 0x40 }
  - { offsetInCU: 0x1B211, offset: 0x1B211, size: 0x8, addend: 0x0, symName: __ZNSt3__118__unwrap_iter_implIPcLb1EE8__rewrapB7v160006ES1_S1_, symObjAddr: 0xDF80, symBinAddr: 0x10000FF20, symSize: 0x40 }
  - { offsetInCU: 0x1B242, offset: 0x1B242, size: 0x8, addend: 0x0, symName: __ZNSt3__16vectorINS_12basic_stringIcNS_11char_traitsIcEENS_9allocatorIcEEEENS4_IS6_EEE21__push_back_slow_pathIS6_EEvOT_, symObjAddr: 0xE060, symBinAddr: 0x100010000, symSize: 0xD0 }
  - { offsetInCU: 0x1B2A0, offset: 0x1B2A0, size: 0x8, addend: 0x0, symName: __ZNSt3__14pairI11TreeDiagramS1_EC2B7v160006IRS1_S4_LPv0EEEOT_OT0_, symObjAddr: 0xE130, symBinAddr: 0x1000100D0, symSize: 0x60 }
  - { offsetInCU: 0x1B2FE, offset: 0x1B2FE, size: 0x8, addend: 0x0, symName: __ZNSt3__16vectorIiNS_9allocatorIiEEEC2B7v160006Ev, symObjAddr: 0xE190, symBinAddr: 0x100010130, symSize: 0x60 }
  - { offsetInCU: 0x1B328, offset: 0x1B328, size: 0x8, addend: 0x0, symName: __ZNSt3__117__compressed_pairIPiNS_9allocatorIiEEEC1B7v160006IDnNS_18__default_init_tagEEEOT_OT0_, symObjAddr: 0xE1F0, symBinAddr: 0x100010190, symSize: 0x30 }
  - { offsetInCU: 0x1B380, offset: 0x1B380, size: 0x8, addend: 0x0, symName: __ZNSt3__117__compressed_pairIPiNS_9allocatorIiEEEC2B7v160006IDnNS_18__default_init_tagEEEOT_OT0_, symObjAddr: 0xE230, symBinAddr: 0x1000101D0, symSize: 0x40 }
  - { offsetInCU: 0x1B3D8, offset: 0x1B3D8, size: 0x8, addend: 0x0, symName: __ZNSt3__122__compressed_pair_elemIPiLi0ELb0EEC2B7v160006IDnvEEOT_, symObjAddr: 0xE270, symBinAddr: 0x100010210, symSize: 0x20 }
  - { offsetInCU: 0x1B41A, offset: 0x1B41A, size: 0x8, addend: 0x0, symName: __ZNSt3__122__compressed_pair_elemINS_9allocatorIiEELi1ELb1EEC2B7v160006ENS_18__default_init_tagE, symObjAddr: 0xE290, symBinAddr: 0x100010230, symSize: 0x20 }
  - { offsetInCU: 0x1B44E, offset: 0x1B44E, size: 0x8, addend: 0x0, symName: __ZNSt3__19allocatorIiEC2B7v160006Ev, symObjAddr: 0xE2B0, symBinAddr: 0x100010250, symSize: 0x20 }
  - { offsetInCU: 0x1B478, offset: 0x1B478, size: 0x8, addend: 0x0, symName: __ZNSt3__116__non_trivial_ifILb1ENS_9allocatorIiEEEC2B7v160006Ev, symObjAddr: 0xE2D0, symBinAddr: 0x100010270, symSize: 0x10 }
  - { offsetInCU: 0x1B4A2, offset: 0x1B4A2, size: 0x8, addend: 0x0, symName: __ZNSt3__16vectorIiNS_9allocatorIiEEED2B7v160006Ev, symObjAddr: 0xE2E0, symBinAddr: 0x100010280, symSize: 0x40 }
  - { offsetInCU: 0x1B4CC, offset: 0x1B4CC, size: 0x8, addend: 0x0, symName: __ZNSt3__16vectorIiNS_9allocatorIiEEE16__destroy_vectorC1ERS3_, symObjAddr: 0xE320, symBinAddr: 0x1000102C0, symSize: 0x30 }
  - { offsetInCU: 0x1B505, offset: 0x1B505, size: 0x8, addend: 0x0, symName: __ZNSt3__16vectorIiNS_9allocatorIiEEE16__destroy_vectorclB7v160006Ev, symObjAddr: 0xE350, symBinAddr: 0x1000102F0, symSize: 0x90 }
  - { offsetInCU: 0x1B52B, offset: 0x1B52B, size: 0x8, addend: 0x0, symName: __ZNSt3__16vectorIiNS_9allocatorIiEEE16__destroy_vectorC2ERS3_, symObjAddr: 0xE3E0, symBinAddr: 0x100010380, symSize: 0x20 }
  - { offsetInCU: 0x1B564, offset: 0x1B564, size: 0x8, addend: 0x0, symName: __ZNKSt3__16vectorIiNS_9allocatorIiEEE17__annotate_deleteB7v160006Ev, symObjAddr: 0xE400, symBinAddr: 0x1000103A0, symSize: 0xB0 }
  - { offsetInCU: 0x1B58A, offset: 0x1B58A, size: 0x8, addend: 0x0, symName: __ZNSt3__16vectorIiNS_9allocatorIiEEE7__clearB7v160006Ev, symObjAddr: 0xE4C0, symBinAddr: 0x100010460, symSize: 0x20 }
  - { offsetInCU: 0x1B5B0, offset: 0x1B5B0, size: 0x8, addend: 0x0, symName: __ZNSt3__116allocator_traitsINS_9allocatorIiEEE10deallocateB7v160006ERS2_Pim, symObjAddr: 0xE4E0, symBinAddr: 0x100010480, symSize: 0x30 }
  - { offsetInCU: 0x1B5F2, offset: 0x1B5F2, size: 0x8, addend: 0x0, symName: __ZNSt3__16vectorIiNS_9allocatorIiEEE7__allocB7v160006Ev, symObjAddr: 0xE510, symBinAddr: 0x1000104B0, symSize: 0x20 }
  - { offsetInCU: 0x1B618, offset: 0x1B618, size: 0x8, addend: 0x0, symName: __ZNKSt3__16vectorIiNS_9allocatorIiEEE8capacityB7v160006Ev, symObjAddr: 0xE530, symBinAddr: 0x1000104D0, symSize: 0x30 }
  - { offsetInCU: 0x1B63E, offset: 0x1B63E, size: 0x8, addend: 0x0, symName: __ZNKSt3__16vectorIiNS_9allocatorIiEEE31__annotate_contiguous_containerB7v160006EPKvS5_S5_S5_, symObjAddr: 0xE560, symBinAddr: 0x100010500, symSize: 0x20 }
  - { offsetInCU: 0x1B690, offset: 0x1B690, size: 0x8, addend: 0x0, symName: __ZNKSt3__16vectorIiNS_9allocatorIiEEE4dataB7v160006Ev, symObjAddr: 0xE580, symBinAddr: 0x100010520, symSize: 0x20 }
  - { offsetInCU: 0x1B6B6, offset: 0x1B6B6, size: 0x8, addend: 0x0, symName: __ZNSt3__16vectorIiNS_9allocatorIiEEE22__base_destruct_at_endB7v160006EPi, symObjAddr: 0xE5B0, symBinAddr: 0x100010550, symSize: 0x80 }
  - { offsetInCU: 0x1B6FA, offset: 0x1B6FA, size: 0x8, addend: 0x0, symName: __ZNSt3__116allocator_traitsINS_9allocatorIiEEE7destroyB7v160006IivEEvRS2_PT_, symObjAddr: 0xE630, symBinAddr: 0x1000105D0, symSize: 0x30 }
  - { offsetInCU: 0x1B737, offset: 0x1B737, size: 0x8, addend: 0x0, symName: __ZNSt3__19allocatorIiE7destroyB7v160006EPi, symObjAddr: 0xE660, symBinAddr: 0x100010600, symSize: 0x10 }
  - { offsetInCU: 0x1B76B, offset: 0x1B76B, size: 0x8, addend: 0x0, symName: __ZNSt3__19allocatorIiE10deallocateB7v160006EPim, symObjAddr: 0xE670, symBinAddr: 0x100010610, symSize: 0x40 }
  - { offsetInCU: 0x1B7AD, offset: 0x1B7AD, size: 0x8, addend: 0x0, symName: __ZNSt3__117__compressed_pairIPiNS_9allocatorIiEEE6secondB7v160006Ev, symObjAddr: 0xE6B0, symBinAddr: 0x100010650, symSize: 0x20 }
  - { offsetInCU: 0x1B7D3, offset: 0x1B7D3, size: 0x8, addend: 0x0, symName: __ZNSt3__122__compressed_pair_elemINS_9allocatorIiEELi1ELb1EE5__getB7v160006Ev, symObjAddr: 0xE6D0, symBinAddr: 0x100010670, symSize: 0x10 }
  - { offsetInCU: 0x1B7F9, offset: 0x1B7F9, size: 0x8, addend: 0x0, symName: __ZNKSt3__16vectorIiNS_9allocatorIiEEE9__end_capB7v160006Ev, symObjAddr: 0xE6E0, symBinAddr: 0x100010680, symSize: 0x20 }
  - { offsetInCU: 0x1B81F, offset: 0x1B81F, size: 0x8, addend: 0x0, symName: __ZNKSt3__117__compressed_pairIPiNS_9allocatorIiEEE5firstB7v160006Ev, symObjAddr: 0xE700, symBinAddr: 0x1000106A0, symSize: 0x20 }
  - { offsetInCU: 0x1B845, offset: 0x1B845, size: 0x8, addend: 0x0, symName: __ZNKSt3__122__compressed_pair_elemIPiLi0ELb0EE5__getB7v160006Ev, symObjAddr: 0xE720, symBinAddr: 0x1000106C0, symSize: 0x10 }
  - { offsetInCU: 0x1B86B, offset: 0x1B86B, size: 0x8, addend: 0x0, symName: __ZNSt3__16vectorIiNS_9allocatorIiEEE9__end_capB7v160006Ev, symObjAddr: 0xE730, symBinAddr: 0x1000106D0, symSize: 0x20 }
  - { offsetInCU: 0x1B891, offset: 0x1B891, size: 0x8, addend: 0x0, symName: __ZNSt3__16vectorIiNS_9allocatorIiEEE22__construct_one_at_endB7v160006IJRKiEEEvDpOT_, symObjAddr: 0xE750, symBinAddr: 0x1000106F0, symSize: 0x90 }
  - { offsetInCU: 0x1B8E0, offset: 0x1B8E0, size: 0x8, addend: 0x0, symName: __ZNSt3__16vectorIiNS_9allocatorIiEEE21__push_back_slow_pathIRKiEEvOT_, symObjAddr: 0xE7E0, symBinAddr: 0x100010780, symSize: 0xD0 }
  - { offsetInCU: 0x1B93E, offset: 0x1B93E, size: 0x8, addend: 0x0, symName: __ZNSt3__117__compressed_pairIPiNS_9allocatorIiEEE5firstB7v160006Ev, symObjAddr: 0xE8B0, symBinAddr: 0x100010850, symSize: 0x20 }
  - { offsetInCU: 0x1B964, offset: 0x1B964, size: 0x8, addend: 0x0, symName: __ZNSt3__122__compressed_pair_elemIPiLi0ELb0EE5__getB7v160006Ev, symObjAddr: 0xE8D0, symBinAddr: 0x100010870, symSize: 0x10 }
  - { offsetInCU: 0x1B9A3, offset: 0x1B9A3, size: 0x8, addend: 0x0, symName: __ZNSt3__16vectorIiNS_9allocatorIiEEE21_ConstructTransactionC1B7v160006ERS3_m, symObjAddr: 0xE8E0, symBinAddr: 0x100010880, symSize: 0x30 }
  - { offsetInCU: 0x1B9EB, offset: 0x1B9EB, size: 0x8, addend: 0x0, symName: __ZNSt3__116allocator_traitsINS_9allocatorIiEEE9constructB7v160006IiJRKiEvEEvRS2_PT_DpOT0_, symObjAddr: 0xE910, symBinAddr: 0x1000108B0, symSize: 0x30 }
  - { offsetInCU: 0x1BA42, offset: 0x1BA42, size: 0x8, addend: 0x0, symName: __ZNSt3__16vectorIiNS_9allocatorIiEEE21_ConstructTransactionD1B7v160006Ev, symObjAddr: 0xE940, symBinAddr: 0x1000108E0, symSize: 0x20 }
  - { offsetInCU: 0x1BA6C, offset: 0x1BA6C, size: 0x8, addend: 0x0, symName: __ZNSt3__16vectorIiNS_9allocatorIiEEE21_ConstructTransactionC2B7v160006ERS3_m, symObjAddr: 0xE960, symBinAddr: 0x100010900, symSize: 0x40 }
  - { offsetInCU: 0x1BAB4, offset: 0x1BAB4, size: 0x8, addend: 0x0, symName: __ZNSt3__19allocatorIiE9constructB7v160006IiJRKiEEEvPT_DpOT0_, symObjAddr: 0xE9A0, symBinAddr: 0x100010940, symSize: 0x20 }
  - { offsetInCU: 0x1BB0A, offset: 0x1BB0A, size: 0x8, addend: 0x0, symName: __ZNSt3__16vectorIiNS_9allocatorIiEEE21_ConstructTransactionD2B7v160006Ev, symObjAddr: 0xE9C0, symBinAddr: 0x100010960, symSize: 0x20 }
  - { offsetInCU: 0x1BB34, offset: 0x1BB34, size: 0x8, addend: 0x0, symName: __ZNKSt3__16vectorIiNS_9allocatorIiEEE11__recommendB7v160006Em, symObjAddr: 0xE9E0, symBinAddr: 0x100010980, symSize: 0xA0 }
  - { offsetInCU: 0x1BB89, offset: 0x1BB89, size: 0x8, addend: 0x0, symName: __ZNSt3__114__split_bufferIiRNS_9allocatorIiEEEC1EmmS3_, symObjAddr: 0xEA80, symBinAddr: 0x100010A20, symSize: 0x40 }
  - { offsetInCU: 0x1BBDF, offset: 0x1BBDF, size: 0x8, addend: 0x0, symName: __ZNSt3__114__split_bufferIiRNS_9allocatorIiEEED1Ev, symObjAddr: 0xEBF0, symBinAddr: 0x100010B90, symSize: 0x20 }
  - { offsetInCU: 0x1BC0B, offset: 0x1BC0B, size: 0x8, addend: 0x0, symName: __ZNKSt3__16vectorIiNS_9allocatorIiEEE8max_sizeEv, symObjAddr: 0xEC10, symBinAddr: 0x100010BB0, symSize: 0x60 }
  - { offsetInCU: 0x1BC33, offset: 0x1BC33, size: 0x8, addend: 0x0, symName: __ZNKSt3__16vectorIiNS_9allocatorIiEEE20__throw_length_errorB7v160006Ev, symObjAddr: 0xEC70, symBinAddr: 0x100010C10, symSize: 0x20 }
  - { offsetInCU: 0x1BC63, offset: 0x1BC63, size: 0x8, addend: 0x0, symName: __ZNSt3__116allocator_traitsINS_9allocatorIiEEE8max_sizeB7v160006IS2_vEEmRKS2_, symObjAddr: 0xEC90, symBinAddr: 0x100010C30, symSize: 0x20 }
  - { offsetInCU: 0x1BC91, offset: 0x1BC91, size: 0x8, addend: 0x0, symName: __ZNKSt3__16vectorIiNS_9allocatorIiEEE7__allocB7v160006Ev, symObjAddr: 0xECB0, symBinAddr: 0x100010C50, symSize: 0x20 }
  - { offsetInCU: 0x1BCB7, offset: 0x1BCB7, size: 0x8, addend: 0x0, symName: __ZNKSt3__19allocatorIiE8max_sizeB7v160006Ev, symObjAddr: 0xECD0, symBinAddr: 0x100010C70, symSize: 0x20 }
  - { offsetInCU: 0x1BCDD, offset: 0x1BCDD, size: 0x8, addend: 0x0, symName: __ZNKSt3__117__compressed_pairIPiNS_9allocatorIiEEE6secondB7v160006Ev, symObjAddr: 0xECF0, symBinAddr: 0x100010C90, symSize: 0x20 }
  - { offsetInCU: 0x1BD03, offset: 0x1BD03, size: 0x8, addend: 0x0, symName: __ZNKSt3__122__compressed_pair_elemINS_9allocatorIiEELi1ELb1EE5__getB7v160006Ev, symObjAddr: 0xED10, symBinAddr: 0x100010CB0, symSize: 0x10 }
  - { offsetInCU: 0x1BD29, offset: 0x1BD29, size: 0x8, addend: 0x0, symName: __ZNSt3__114__split_bufferIiRNS_9allocatorIiEEEC2EmmS3_, symObjAddr: 0xED20, symBinAddr: 0x100010CC0, symSize: 0xD0 }
  - { offsetInCU: 0x1BD9C, offset: 0x1BD9C, size: 0x8, addend: 0x0, symName: __ZNSt3__117__compressed_pairIPiRNS_9allocatorIiEEEC1B7v160006IDnS4_EEOT_OT0_, symObjAddr: 0xEDF0, symBinAddr: 0x100010D90, symSize: 0x30 }
  - { offsetInCU: 0x1BDF4, offset: 0x1BDF4, size: 0x8, addend: 0x0, symName: __ZNSt3__114__split_bufferIiRNS_9allocatorIiEEE7__allocB7v160006Ev, symObjAddr: 0xEE60, symBinAddr: 0x100010E00, symSize: 0x20 }
  - { offsetInCU: 0x1BE1A, offset: 0x1BE1A, size: 0x8, addend: 0x0, symName: __ZNSt3__114__split_bufferIiRNS_9allocatorIiEEE9__end_capB7v160006Ev, symObjAddr: 0xEE80, symBinAddr: 0x100010E20, symSize: 0x20 }
  - { offsetInCU: 0x1BE40, offset: 0x1BE40, size: 0x8, addend: 0x0, symName: __ZNSt3__117__compressed_pairIPiRNS_9allocatorIiEEEC2B7v160006IDnS4_EEOT_OT0_, symObjAddr: 0xEEA0, symBinAddr: 0x100010E40, symSize: 0x40 }
  - { offsetInCU: 0x1BE98, offset: 0x1BE98, size: 0x8, addend: 0x0, symName: __ZNSt3__122__compressed_pair_elemIRNS_9allocatorIiEELi1ELb0EEC2B7v160006IS3_vEEOT_, symObjAddr: 0xEEE0, symBinAddr: 0x100010E80, symSize: 0x20 }
  - { offsetInCU: 0x1BEDA, offset: 0x1BEDA, size: 0x8, addend: 0x0, symName: __ZNSt3__19allocatorIiE8allocateB7v160006Em, symObjAddr: 0xEF00, symBinAddr: 0x100010EA0, symSize: 0x50 }
  - { offsetInCU: 0x1BF0E, offset: 0x1BF0E, size: 0x8, addend: 0x0, symName: __ZNSt3__117__compressed_pairIPiRNS_9allocatorIiEEE6secondB7v160006Ev, symObjAddr: 0xEF50, symBinAddr: 0x100010EF0, symSize: 0x20 }
  - { offsetInCU: 0x1BF34, offset: 0x1BF34, size: 0x8, addend: 0x0, symName: __ZNSt3__122__compressed_pair_elemIRNS_9allocatorIiEELi1ELb0EE5__getB7v160006Ev, symObjAddr: 0xEF70, symBinAddr: 0x100010F10, symSize: 0x20 }
  - { offsetInCU: 0x1BF5A, offset: 0x1BF5A, size: 0x8, addend: 0x0, symName: __ZNSt3__117__compressed_pairIPiRNS_9allocatorIiEEE5firstB7v160006Ev, symObjAddr: 0xEF90, symBinAddr: 0x100010F30, symSize: 0x20 }
  - { offsetInCU: 0x1BF80, offset: 0x1BF80, size: 0x8, addend: 0x0, symName: __ZNSt3__116reverse_iteratorIPiEC1B7v160006ES1_, symObjAddr: 0xF020, symBinAddr: 0x100010FC0, symSize: 0x30 }
  - { offsetInCU: 0x1BFB8, offset: 0x1BFB8, size: 0x8, addend: 0x0, symName: __ZNKSt3__116reverse_iteratorIPiE4baseB7v160006Ev, symObjAddr: 0xF050, symBinAddr: 0x100010FF0, symSize: 0x20 }
  - { offsetInCU: 0x1BFDE, offset: 0x1BFDE, size: 0x8, addend: 0x0, symName: __ZNKSt3__16vectorIiNS_9allocatorIiEEE14__annotate_newB7v160006Em, symObjAddr: 0xF0B0, symBinAddr: 0x100011050, symSize: 0xB0 }
  - { offsetInCU: 0x1C02C, offset: 0x1C02C, size: 0x8, addend: 0x0, symName: __ZNKSt3__111__move_loopINS_17_ClassicAlgPolicyEEclB7v160006INS_16reverse_iteratorIPiEES6_S6_EENS_4pairIT_T1_EES8_T0_S9_, symObjAddr: 0xF5B0, symBinAddr: 0x100011550, symSize: 0xA0 }
  - { offsetInCU: 0x1C09C, offset: 0x1C09C, size: 0x8, addend: 0x0, symName: __ZNSt3__18_IterOpsINS_17_ClassicAlgPolicyEE11__iter_moveB7v160006IRNS_16reverse_iteratorIPiEEEENS_9enable_ifIXsr12is_referenceIDTdeclsr3stdE7declvalIRT_EEEEE5valueEDTclsr3stdE4movedeclsr3stdE7declvalISA_EEEEE4typeEOS9_, symObjAddr: 0xF7D0, symBinAddr: 0x100011770, symSize: 0x20 }
  - { offsetInCU: 0x1C0C8, offset: 0x1C0C8, size: 0x8, addend: 0x0, symName: __ZNKSt3__116reverse_iteratorIPiEdeB7v160006Ev, symObjAddr: 0xF7F0, symBinAddr: 0x100011790, symSize: 0x30 }
  - { offsetInCU: 0x1C0FC, offset: 0x1C0FC, size: 0x8, addend: 0x0, symName: __ZNSt3__116reverse_iteratorIPiEppB7v160006Ev, symObjAddr: 0xF820, symBinAddr: 0x1000117C0, symSize: 0x20 }
  - { offsetInCU: 0x1C122, offset: 0x1C122, size: 0x8, addend: 0x0, symName: __ZNSt3__18_IterOpsINS_17_ClassicAlgPolicyEE25__validate_iter_referenceB7v160006IRNS_16reverse_iteratorIPiEEEEvv, symObjAddr: 0xF840, symBinAddr: 0x1000117E0, symSize: 0x10 }
  - { offsetInCU: 0x1C140, offset: 0x1C140, size: 0x8, addend: 0x0, symName: __ZNSt3__118__unwrap_iter_implINS_16reverse_iteratorIPiEELb0EE8__unwrapB7v160006ES3_, symObjAddr: 0xF850, symBinAddr: 0x1000117F0, symSize: 0x20 }
  - { offsetInCU: 0x1C168, offset: 0x1C168, size: 0x8, addend: 0x0, symName: __ZNSt3__14pairINS_16reverse_iteratorIPiEES3_EC1B7v160006IS3_S3_LPv0EEEOT_OT0_, symObjAddr: 0xF870, symBinAddr: 0x100011810, symSize: 0x30 }
  - { offsetInCU: 0x1C1C6, offset: 0x1C1C6, size: 0x8, addend: 0x0, symName: __ZNSt3__14pairINS_16reverse_iteratorIPiEES3_EC2B7v160006IS3_S3_LPv0EEEOT_OT0_, symObjAddr: 0xF8A0, symBinAddr: 0x100011840, symSize: 0x40 }
  - { offsetInCU: 0x1C224, offset: 0x1C224, size: 0x8, addend: 0x0, symName: __ZNSt3__118__unwrap_iter_implINS_16reverse_iteratorIPiEELb0EE8__rewrapB7v160006ES3_S3_, symObjAddr: 0xF8E0, symBinAddr: 0x100011880, symSize: 0x30 }
  - { offsetInCU: 0x1C251, offset: 0x1C251, size: 0x8, addend: 0x0, symName: __ZNSt3__116reverse_iteratorIPiEC2B7v160006ES1_, symObjAddr: 0xF910, symBinAddr: 0x1000118B0, symSize: 0x30 }
  - { offsetInCU: 0x1C289, offset: 0x1C289, size: 0x8, addend: 0x0, symName: __ZNSt3__114__split_bufferIiRNS_9allocatorIiEEED2Ev, symObjAddr: 0xF940, symBinAddr: 0x1000118E0, symSize: 0x70 }
  - { offsetInCU: 0x1C2B5, offset: 0x1C2B5, size: 0x8, addend: 0x0, symName: __ZNSt3__114__split_bufferIiRNS_9allocatorIiEEE5clearB7v160006Ev, symObjAddr: 0xF9B0, symBinAddr: 0x100011950, symSize: 0x20 }
  - { offsetInCU: 0x1C2DB, offset: 0x1C2DB, size: 0x8, addend: 0x0, symName: __ZNKSt3__114__split_bufferIiRNS_9allocatorIiEEE8capacityB7v160006Ev, symObjAddr: 0xF9D0, symBinAddr: 0x100011970, symSize: 0x30 }
  - { offsetInCU: 0x1C301, offset: 0x1C301, size: 0x8, addend: 0x0, symName: __ZNSt3__114__split_bufferIiRNS_9allocatorIiEEE17__destruct_at_endB7v160006EPi, symObjAddr: 0xFA00, symBinAddr: 0x1000119A0, symSize: 0x30 }
  - { offsetInCU: 0x1C335, offset: 0x1C335, size: 0x8, addend: 0x0, symName: __ZNSt3__114__split_bufferIiRNS_9allocatorIiEEE17__destruct_at_endB7v160006EPiNS_17integral_constantIbLb0EEE, symObjAddr: 0xFA30, symBinAddr: 0x1000119D0, symSize: 0x80 }
  - { offsetInCU: 0x1C375, offset: 0x1C375, size: 0x8, addend: 0x0, symName: __ZNKSt3__114__split_bufferIiRNS_9allocatorIiEEE9__end_capB7v160006Ev, symObjAddr: 0xFAB0, symBinAddr: 0x100011A50, symSize: 0x20 }
  - { offsetInCU: 0x1C39B, offset: 0x1C39B, size: 0x8, addend: 0x0, symName: __ZNKSt3__117__compressed_pairIPiRNS_9allocatorIiEEE5firstB7v160006Ev, symObjAddr: 0xFAD0, symBinAddr: 0x100011A70, symSize: 0x20 }
  - { offsetInCU: 0x1C3C1, offset: 0x1C3C1, size: 0x8, addend: 0x0, symName: __ZNSt3__16vectorINS0_IiNS_9allocatorIiEEEENS1_IS3_EEEC2B7v160006Ev, symObjAddr: 0xFAF0, symBinAddr: 0x100011A90, symSize: 0x60 }
  - { offsetInCU: 0x1C3EB, offset: 0x1C3EB, size: 0x8, addend: 0x0, symName: __ZNSt3__117__compressed_pairIPNS_6vectorIiNS_9allocatorIiEEEENS2_IS4_EEEC1B7v160006IDnNS_18__default_init_tagEEEOT_OT0_, symObjAddr: 0xFB50, symBinAddr: 0x100011AF0, symSize: 0x30 }
  - { offsetInCU: 0x1C443, offset: 0x1C443, size: 0x8, addend: 0x0, symName: __ZNSt3__117__compressed_pairIPNS_6vectorIiNS_9allocatorIiEEEENS2_IS4_EEEC2B7v160006IDnNS_18__default_init_tagEEEOT_OT0_, symObjAddr: 0xFB90, symBinAddr: 0x100011B30, symSize: 0x40 }
  - { offsetInCU: 0x1C49B, offset: 0x1C49B, size: 0x8, addend: 0x0, symName: __ZNSt3__122__compressed_pair_elemIPNS_6vectorIiNS_9allocatorIiEEEELi0ELb0EEC2B7v160006IDnvEEOT_, symObjAddr: 0xFBD0, symBinAddr: 0x100011B70, symSize: 0x20 }
  - { offsetInCU: 0x1C4DD, offset: 0x1C4DD, size: 0x8, addend: 0x0, symName: __ZNSt3__122__compressed_pair_elemINS_9allocatorINS_6vectorIiNS1_IiEEEEEELi1ELb1EEC2B7v160006ENS_18__default_init_tagE, symObjAddr: 0xFBF0, symBinAddr: 0x100011B90, symSize: 0x20 }
  - { offsetInCU: 0x1C511, offset: 0x1C511, size: 0x8, addend: 0x0, symName: __ZNSt3__19allocatorINS_6vectorIiNS0_IiEEEEEC2B7v160006Ev, symObjAddr: 0xFC10, symBinAddr: 0x100011BB0, symSize: 0x20 }
  - { offsetInCU: 0x1C53B, offset: 0x1C53B, size: 0x8, addend: 0x0, symName: __ZNSt3__116__non_trivial_ifILb1ENS_9allocatorINS_6vectorIiNS1_IiEEEEEEEC2B7v160006Ev, symObjAddr: 0xFC30, symBinAddr: 0x100011BD0, symSize: 0x10 }
  - { offsetInCU: 0x1C565, offset: 0x1C565, size: 0x8, addend: 0x0, symName: __ZNSt3__16vectorINS0_IiNS_9allocatorIiEEEENS1_IS3_EEED2B7v160006Ev, symObjAddr: 0xFC40, symBinAddr: 0x100011BE0, symSize: 0x40 }
  - { offsetInCU: 0x1C58F, offset: 0x1C58F, size: 0x8, addend: 0x0, symName: __ZNSt3__16vectorINS0_IiNS_9allocatorIiEEEENS1_IS3_EEE16__destroy_vectorC1ERS5_, symObjAddr: 0xFC80, symBinAddr: 0x100011C20, symSize: 0x30 }
  - { offsetInCU: 0x1C5C8, offset: 0x1C5C8, size: 0x8, addend: 0x0, symName: __ZNSt3__16vectorINS0_IiNS_9allocatorIiEEEENS1_IS3_EEE16__destroy_vectorclB7v160006Ev, symObjAddr: 0xFCB0, symBinAddr: 0x100011C50, symSize: 0x90 }
  - { offsetInCU: 0x1C5EE, offset: 0x1C5EE, size: 0x8, addend: 0x0, symName: __ZNSt3__16vectorINS0_IiNS_9allocatorIiEEEENS1_IS3_EEE16__destroy_vectorC2ERS5_, symObjAddr: 0xFD40, symBinAddr: 0x100011CE0, symSize: 0x20 }
  - { offsetInCU: 0x1C627, offset: 0x1C627, size: 0x8, addend: 0x0, symName: __ZNKSt3__16vectorINS0_IiNS_9allocatorIiEEEENS1_IS3_EEE17__annotate_deleteB7v160006Ev, symObjAddr: 0xFD60, symBinAddr: 0x100011D00, symSize: 0xB0 }
  - { offsetInCU: 0x1C64D, offset: 0x1C64D, size: 0x8, addend: 0x0, symName: __ZNSt3__16vectorINS0_IiNS_9allocatorIiEEEENS1_IS3_EEE7__clearB7v160006Ev, symObjAddr: 0xFE20, symBinAddr: 0x100011DC0, symSize: 0x20 }
  - { offsetInCU: 0x1C673, offset: 0x1C673, size: 0x8, addend: 0x0, symName: __ZNSt3__116allocator_traitsINS_9allocatorINS_6vectorIiNS1_IiEEEEEEE10deallocateB7v160006ERS5_PS4_m, symObjAddr: 0xFE40, symBinAddr: 0x100011DE0, symSize: 0x30 }
  - { offsetInCU: 0x1C6B5, offset: 0x1C6B5, size: 0x8, addend: 0x0, symName: __ZNSt3__16vectorINS0_IiNS_9allocatorIiEEEENS1_IS3_EEE7__allocB7v160006Ev, symObjAddr: 0xFE70, symBinAddr: 0x100011E10, symSize: 0x20 }
  - { offsetInCU: 0x1C6DB, offset: 0x1C6DB, size: 0x8, addend: 0x0, symName: __ZNKSt3__16vectorINS0_IiNS_9allocatorIiEEEENS1_IS3_EEE8capacityB7v160006Ev, symObjAddr: 0xFE90, symBinAddr: 0x100011E30, symSize: 0x40 }
  - { offsetInCU: 0x1C701, offset: 0x1C701, size: 0x8, addend: 0x0, symName: __ZNKSt3__16vectorINS0_IiNS_9allocatorIiEEEENS1_IS3_EEE31__annotate_contiguous_containerB7v160006EPKvS7_S7_S7_, symObjAddr: 0xFED0, symBinAddr: 0x100011E70, symSize: 0x20 }
  - { offsetInCU: 0x1C753, offset: 0x1C753, size: 0x8, addend: 0x0, symName: __ZNKSt3__16vectorINS0_IiNS_9allocatorIiEEEENS1_IS3_EEE4dataB7v160006Ev, symObjAddr: 0xFEF0, symBinAddr: 0x100011E90, symSize: 0x20 }
  - { offsetInCU: 0x1C779, offset: 0x1C779, size: 0x8, addend: 0x0, symName: __ZNSt3__16vectorINS0_IiNS_9allocatorIiEEEENS1_IS3_EEE22__base_destruct_at_endB7v160006EPS3_, symObjAddr: 0xFF20, symBinAddr: 0x100011EC0, symSize: 0x80 }
  - { offsetInCU: 0x1C7BD, offset: 0x1C7BD, size: 0x8, addend: 0x0, symName: __ZNSt3__116allocator_traitsINS_9allocatorINS_6vectorIiNS1_IiEEEEEEE7destroyB7v160006IS4_vEEvRS5_PT_, symObjAddr: 0xFFA0, symBinAddr: 0x100011F40, symSize: 0x30 }
  - { offsetInCU: 0x1C7FA, offset: 0x1C7FA, size: 0x8, addend: 0x0, symName: __ZNSt3__19allocatorINS_6vectorIiNS0_IiEEEEE7destroyB7v160006EPS3_, symObjAddr: 0xFFD0, symBinAddr: 0x100011F70, symSize: 0x20 }
  - { offsetInCU: 0x1C82E, offset: 0x1C82E, size: 0x8, addend: 0x0, symName: __ZNSt3__19allocatorINS_6vectorIiNS0_IiEEEEE10deallocateB7v160006EPS3_m, symObjAddr: 0xFFF0, symBinAddr: 0x100011F90, symSize: 0x50 }
  - { offsetInCU: 0x1C870, offset: 0x1C870, size: 0x8, addend: 0x0, symName: __ZNSt3__117__compressed_pairIPNS_6vectorIiNS_9allocatorIiEEEENS2_IS4_EEE6secondB7v160006Ev, symObjAddr: 0x10040, symBinAddr: 0x100011FE0, symSize: 0x20 }
  - { offsetInCU: 0x1C896, offset: 0x1C896, size: 0x8, addend: 0x0, symName: __ZNSt3__122__compressed_pair_elemINS_9allocatorINS_6vectorIiNS1_IiEEEEEELi1ELb1EE5__getB7v160006Ev, symObjAddr: 0x10060, symBinAddr: 0x100012000, symSize: 0x10 }
  - { offsetInCU: 0x1C8BC, offset: 0x1C8BC, size: 0x8, addend: 0x0, symName: __ZNKSt3__16vectorINS0_IiNS_9allocatorIiEEEENS1_IS3_EEE9__end_capB7v160006Ev, symObjAddr: 0x10070, symBinAddr: 0x100012010, symSize: 0x20 }
  - { offsetInCU: 0x1C8E2, offset: 0x1C8E2, size: 0x8, addend: 0x0, symName: __ZNKSt3__117__compressed_pairIPNS_6vectorIiNS_9allocatorIiEEEENS2_IS4_EEE5firstB7v160006Ev, symObjAddr: 0x10090, symBinAddr: 0x100012030, symSize: 0x20 }
  - { offsetInCU: 0x1C908, offset: 0x1C908, size: 0x8, addend: 0x0, symName: __ZNKSt3__122__compressed_pair_elemIPNS_6vectorIiNS_9allocatorIiEEEELi0ELb0EE5__getB7v160006Ev, symObjAddr: 0x100B0, symBinAddr: 0x100012050, symSize: 0x10 }
  - { offsetInCU: 0x1C92E, offset: 0x1C92E, size: 0x8, addend: 0x0, symName: __ZNSt3__16vectorIiNS_9allocatorIiEEEC2EmRKi, symObjAddr: 0x100C0, symBinAddr: 0x100012060, symSize: 0xE0 }
  - { offsetInCU: 0x1C98D, offset: 0x1C98D, size: 0x8, addend: 0x0, symName: __ZNSt3__16vectorIiNS_9allocatorIiEEE11__vallocateB7v160006Em, symObjAddr: 0x101E0, symBinAddr: 0x100012180, symSize: 0xA0 }
  - { offsetInCU: 0x1C9D1, offset: 0x1C9D1, size: 0x8, addend: 0x0, symName: __ZNSt3__16vectorIiNS_9allocatorIiEEE18__construct_at_endEmRKi, symObjAddr: 0x10280, symBinAddr: 0x100012220, symSize: 0xC0 }
  - { offsetInCU: 0x1CA52, offset: 0x1CA52, size: 0x8, addend: 0x0, symName: __ZNSt3__128__exception_guard_exceptionsINS_6vectorIiNS_9allocatorIiEEE16__destroy_vectorEE10__completeB7v160006Ev, symObjAddr: 0x10340, symBinAddr: 0x1000122E0, symSize: 0x20 }
  - { offsetInCU: 0x1CA78, offset: 0x1CA78, size: 0x8, addend: 0x0, symName: __ZNSt3__128__exception_guard_exceptionsINS_6vectorIiNS_9allocatorIiEEE16__destroy_vectorEED1B7v160006Ev, symObjAddr: 0x10360, symBinAddr: 0x100012300, symSize: 0x20 }
  - { offsetInCU: 0x1CAA2, offset: 0x1CAA2, size: 0x8, addend: 0x0, symName: __ZNSt3__128__exception_guard_exceptionsINS_6vectorIiNS_9allocatorIiEEE16__destroy_vectorEEC1B7v160006ES5_, symObjAddr: 0x10380, symBinAddr: 0x100012320, symSize: 0x30 }
  - { offsetInCU: 0x1CADA, offset: 0x1CADA, size: 0x8, addend: 0x0, symName: __ZNSt3__128__exception_guard_exceptionsINS_6vectorIiNS_9allocatorIiEEE16__destroy_vectorEEC2B7v160006ES5_, symObjAddr: 0x103B0, symBinAddr: 0x100012350, symSize: 0x20 }
  - { offsetInCU: 0x1CB12, offset: 0x1CB12, size: 0x8, addend: 0x0, symName: __ZNSt3__128__exception_guard_exceptionsINS_6vectorIiNS_9allocatorIiEEE16__destroy_vectorEED2B7v160006Ev, symObjAddr: 0x103D0, symBinAddr: 0x100012370, symSize: 0x40 }
  - { offsetInCU: 0x1CB3C, offset: 0x1CB3C, size: 0x8, addend: 0x0, symName: __ZNSt3__16vectorINS0_IiNS_9allocatorIiEEEENS1_IS3_EEE9__end_capB7v160006Ev, symObjAddr: 0x10410, symBinAddr: 0x1000123B0, symSize: 0x20 }
  - { offsetInCU: 0x1CB62, offset: 0x1CB62, size: 0x8, addend: 0x0, symName: __ZNSt3__16vectorINS0_IiNS_9allocatorIiEEEENS1_IS3_EEE22__construct_one_at_endB7v160006IJRKS3_EEEvDpOT_, symObjAddr: 0x10430, symBinAddr: 0x1000123D0, symSize: 0x90 }
  - { offsetInCU: 0x1CBB1, offset: 0x1CBB1, size: 0x8, addend: 0x0, symName: __ZNSt3__16vectorINS0_IiNS_9allocatorIiEEEENS1_IS3_EEE21__push_back_slow_pathIRKS3_EEvOT_, symObjAddr: 0x104C0, symBinAddr: 0x100012460, symSize: 0xD0 }
  - { offsetInCU: 0x1CC0F, offset: 0x1CC0F, size: 0x8, addend: 0x0, symName: __ZNSt3__117__compressed_pairIPNS_6vectorIiNS_9allocatorIiEEEENS2_IS4_EEE5firstB7v160006Ev, symObjAddr: 0x10590, symBinAddr: 0x100012530, symSize: 0x20 }
  - { offsetInCU: 0x1CC35, offset: 0x1CC35, size: 0x8, addend: 0x0, symName: __ZNSt3__122__compressed_pair_elemIPNS_6vectorIiNS_9allocatorIiEEEELi0ELb0EE5__getB7v160006Ev, symObjAddr: 0x105B0, symBinAddr: 0x100012550, symSize: 0x10 }
  - { offsetInCU: 0x1CC74, offset: 0x1CC74, size: 0x8, addend: 0x0, symName: __ZNSt3__16vectorINS0_IiNS_9allocatorIiEEEENS1_IS3_EEE21_ConstructTransactionC1B7v160006ERS5_m, symObjAddr: 0x105C0, symBinAddr: 0x100012560, symSize: 0x30 }
  - { offsetInCU: 0x1CCBC, offset: 0x1CCBC, size: 0x8, addend: 0x0, symName: __ZNSt3__116allocator_traitsINS_9allocatorINS_6vectorIiNS1_IiEEEEEEE9constructB7v160006IS4_JRKS4_EvEEvRS5_PT_DpOT0_, symObjAddr: 0x105F0, symBinAddr: 0x100012590, symSize: 0x30 }
  - { offsetInCU: 0x1CD13, offset: 0x1CD13, size: 0x8, addend: 0x0, symName: __ZNSt3__16vectorINS0_IiNS_9allocatorIiEEEENS1_IS3_EEE21_ConstructTransactionD1B7v160006Ev, symObjAddr: 0x10620, symBinAddr: 0x1000125C0, symSize: 0x20 }
  - { offsetInCU: 0x1CD3D, offset: 0x1CD3D, size: 0x8, addend: 0x0, symName: __ZNSt3__16vectorINS0_IiNS_9allocatorIiEEEENS1_IS3_EEE21_ConstructTransactionC2B7v160006ERS5_m, symObjAddr: 0x10640, symBinAddr: 0x1000125E0, symSize: 0x40 }
  - { offsetInCU: 0x1CD85, offset: 0x1CD85, size: 0x8, addend: 0x0, symName: __ZNSt3__19allocatorINS_6vectorIiNS0_IiEEEEE9constructB7v160006IS3_JRKS3_EEEvPT_DpOT0_, symObjAddr: 0x10680, symBinAddr: 0x100012620, symSize: 0x30 }
  - { offsetInCU: 0x1CDDB, offset: 0x1CDDB, size: 0x8, addend: 0x0, symName: __ZNSt3__16vectorIiNS_9allocatorIiEEEC1ERKS3_, symObjAddr: 0x106B0, symBinAddr: 0x100012650, symSize: 0x30 }
  - { offsetInCU: 0x1CE16, offset: 0x1CE16, size: 0x8, addend: 0x0, symName: __ZNSt3__16vectorIiNS_9allocatorIiEEEC2ERKS3_, symObjAddr: 0x106E0, symBinAddr: 0x100012680, symSize: 0x110 }
  - { offsetInCU: 0x1CE76, offset: 0x1CE76, size: 0x8, addend: 0x0, symName: __ZNSt3__116allocator_traitsINS_9allocatorIiEEE37select_on_container_copy_constructionB7v160006IS2_vvEES2_RKS2_, symObjAddr: 0x107F0, symBinAddr: 0x100012790, symSize: 0x10 }
  - { offsetInCU: 0x1CEAA, offset: 0x1CEAA, size: 0x8, addend: 0x0, symName: __ZNSt3__117__compressed_pairIPiNS_9allocatorIiEEEC1B7v160006IDnS3_EEOT_OT0_, symObjAddr: 0x10800, symBinAddr: 0x1000127A0, symSize: 0x30 }
  - { offsetInCU: 0x1CF02, offset: 0x1CF02, size: 0x8, addend: 0x0, symName: __ZNSt3__16vectorIiNS_9allocatorIiEEE18__construct_at_endIPiLi0EEEvT_S6_m, symObjAddr: 0x10830, symBinAddr: 0x1000127D0, symSize: 0x90 }
  - { offsetInCU: 0x1CF75, offset: 0x1CF75, size: 0x8, addend: 0x0, symName: __ZNSt3__117__compressed_pairIPiNS_9allocatorIiEEEC2B7v160006IDnS3_EEOT_OT0_, symObjAddr: 0x108C0, symBinAddr: 0x100012860, symSize: 0x40 }
  - { offsetInCU: 0x1CFCD, offset: 0x1CFCD, size: 0x8, addend: 0x0, symName: __ZNSt3__122__compressed_pair_elemINS_9allocatorIiEELi1ELb1EEC2B7v160006IS2_vEEOT_, symObjAddr: 0x10900, symBinAddr: 0x1000128A0, symSize: 0x10 }
  - { offsetInCU: 0x1D00F, offset: 0x1D00F, size: 0x8, addend: 0x0, symName: __ZNSt3__129_AllocatorDestroyRangeReverseINS_9allocatorIiEEPiEC1B7v160006ERS2_RS3_S6_, symObjAddr: 0x10A70, symBinAddr: 0x100012A10, symSize: 0x40 }
  - { offsetInCU: 0x1D066, offset: 0x1D066, size: 0x8, addend: 0x0, symName: __ZNSt3__116allocator_traitsINS_9allocatorIiEEE9constructB7v160006IiJRiEvEEvRS2_PT_DpOT0_, symObjAddr: 0x10AB0, symBinAddr: 0x100012A50, symSize: 0x30 }
  - { offsetInCU: 0x1D0BD, offset: 0x1D0BD, size: 0x8, addend: 0x0, symName: __ZNSt3__128__exception_guard_exceptionsINS_29_AllocatorDestroyRangeReverseINS_9allocatorIiEEPiEEE10__completeB7v160006Ev, symObjAddr: 0x10AE0, symBinAddr: 0x100012A80, symSize: 0x20 }
  - { offsetInCU: 0x1D0E3, offset: 0x1D0E3, size: 0x8, addend: 0x0, symName: __ZNSt3__128__exception_guard_exceptionsINS_29_AllocatorDestroyRangeReverseINS_9allocatorIiEEPiEEED1B7v160006Ev, symObjAddr: 0x10B00, symBinAddr: 0x100012AA0, symSize: 0x20 }
  - { offsetInCU: 0x1D10D, offset: 0x1D10D, size: 0x8, addend: 0x0, symName: __ZNSt3__128__exception_guard_exceptionsINS_29_AllocatorDestroyRangeReverseINS_9allocatorIiEEPiEEEC1B7v160006ES5_, symObjAddr: 0x10B20, symBinAddr: 0x100012AC0, symSize: 0x40 }
  - { offsetInCU: 0x1D145, offset: 0x1D145, size: 0x8, addend: 0x0, symName: __ZNSt3__128__exception_guard_exceptionsINS_29_AllocatorDestroyRangeReverseINS_9allocatorIiEEPiEEEC2B7v160006ES5_, symObjAddr: 0x10B60, symBinAddr: 0x100012B00, symSize: 0x30 }
  - { offsetInCU: 0x1D17D, offset: 0x1D17D, size: 0x8, addend: 0x0, symName: __ZNSt3__129_AllocatorDestroyRangeReverseINS_9allocatorIiEEPiEC2B7v160006ERS2_RS3_S6_, symObjAddr: 0x10B90, symBinAddr: 0x100012B30, symSize: 0x40 }
  - { offsetInCU: 0x1D1D4, offset: 0x1D1D4, size: 0x8, addend: 0x0, symName: __ZNSt3__19allocatorIiE9constructB7v160006IiJRiEEEvPT_DpOT0_, symObjAddr: 0x10BD0, symBinAddr: 0x100012B70, symSize: 0x20 }
  - { offsetInCU: 0x1D22A, offset: 0x1D22A, size: 0x8, addend: 0x0, symName: __ZNSt3__128__exception_guard_exceptionsINS_29_AllocatorDestroyRangeReverseINS_9allocatorIiEEPiEEED2B7v160006Ev, symObjAddr: 0x10BF0, symBinAddr: 0x100012B90, symSize: 0x40 }
  - { offsetInCU: 0x1D254, offset: 0x1D254, size: 0x8, addend: 0x0, symName: __ZNKSt3__129_AllocatorDestroyRangeReverseINS_9allocatorIiEEPiEclB7v160006Ev, symObjAddr: 0x10C30, symBinAddr: 0x100012BD0, symSize: 0x60 }
  - { offsetInCU: 0x1D27F, offset: 0x1D27F, size: 0x8, addend: 0x0, symName: __ZNSt3__119__to_address_helperINS_16reverse_iteratorIPiEEvE6__callB7v160006ERKS3_, symObjAddr: 0x10D20, symBinAddr: 0x100012CC0, symSize: 0x40 }
  - { offsetInCU: 0x1D2A2, offset: 0x1D2A2, size: 0x8, addend: 0x0, symName: __ZNKSt3__116reverse_iteratorIPiEptB7v160006Ev, symObjAddr: 0x10D60, symBinAddr: 0x100012D00, symSize: 0x20 }
  - { offsetInCU: 0x1D2C8, offset: 0x1D2C8, size: 0x8, addend: 0x0, symName: __ZNSt3__16vectorINS0_IiNS_9allocatorIiEEEENS1_IS3_EEE21_ConstructTransactionD2B7v160006Ev, symObjAddr: 0x10D80, symBinAddr: 0x100012D20, symSize: 0x20 }
  - { offsetInCU: 0x1D2F2, offset: 0x1D2F2, size: 0x8, addend: 0x0, symName: __ZNKSt3__16vectorINS0_IiNS_9allocatorIiEEEENS1_IS3_EEE11__recommendB7v160006Em, symObjAddr: 0x10DA0, symBinAddr: 0x100012D40, symSize: 0xA0 }
  - { offsetInCU: 0x1D347, offset: 0x1D347, size: 0x8, addend: 0x0, symName: __ZNSt3__114__split_bufferINS_6vectorIiNS_9allocatorIiEEEERNS2_IS4_EEEC1EmmS6_, symObjAddr: 0x10E40, symBinAddr: 0x100012DE0, symSize: 0x40 }
  - { offsetInCU: 0x1D39D, offset: 0x1D39D, size: 0x8, addend: 0x0, symName: __ZNSt3__114__split_bufferINS_6vectorIiNS_9allocatorIiEEEERNS2_IS4_EEED1Ev, symObjAddr: 0x10FB0, symBinAddr: 0x100012F50, symSize: 0x20 }
  - { offsetInCU: 0x1D3C9, offset: 0x1D3C9, size: 0x8, addend: 0x0, symName: __ZNKSt3__16vectorINS0_IiNS_9allocatorIiEEEENS1_IS3_EEE8max_sizeEv, symObjAddr: 0x10FD0, symBinAddr: 0x100012F70, symSize: 0x60 }
  - { offsetInCU: 0x1D3F1, offset: 0x1D3F1, size: 0x8, addend: 0x0, symName: __ZNKSt3__16vectorINS0_IiNS_9allocatorIiEEEENS1_IS3_EEE20__throw_length_errorB7v160006Ev, symObjAddr: 0x11030, symBinAddr: 0x100012FD0, symSize: 0x20 }
  - { offsetInCU: 0x1D421, offset: 0x1D421, size: 0x8, addend: 0x0, symName: __ZNSt3__116allocator_traitsINS_9allocatorINS_6vectorIiNS1_IiEEEEEEE8max_sizeB7v160006IS5_vEEmRKS5_, symObjAddr: 0x11050, symBinAddr: 0x100012FF0, symSize: 0x20 }
  - { offsetInCU: 0x1D44F, offset: 0x1D44F, size: 0x8, addend: 0x0, symName: __ZNKSt3__16vectorINS0_IiNS_9allocatorIiEEEENS1_IS3_EEE7__allocB7v160006Ev, symObjAddr: 0x11070, symBinAddr: 0x100013010, symSize: 0x20 }
  - { offsetInCU: 0x1D475, offset: 0x1D475, size: 0x8, addend: 0x0, symName: __ZNKSt3__19allocatorINS_6vectorIiNS0_IiEEEEE8max_sizeB7v160006Ev, symObjAddr: 0x11090, symBinAddr: 0x100013030, symSize: 0x20 }
  - { offsetInCU: 0x1D49B, offset: 0x1D49B, size: 0x8, addend: 0x0, symName: __ZNKSt3__117__compressed_pairIPNS_6vectorIiNS_9allocatorIiEEEENS2_IS4_EEE6secondB7v160006Ev, symObjAddr: 0x110B0, symBinAddr: 0x100013050, symSize: 0x20 }
  - { offsetInCU: 0x1D4C1, offset: 0x1D4C1, size: 0x8, addend: 0x0, symName: __ZNKSt3__122__compressed_pair_elemINS_9allocatorINS_6vectorIiNS1_IiEEEEEELi1ELb1EE5__getB7v160006Ev, symObjAddr: 0x110D0, symBinAddr: 0x100013070, symSize: 0x10 }
  - { offsetInCU: 0x1D4E7, offset: 0x1D4E7, size: 0x8, addend: 0x0, symName: __ZNSt3__114__split_bufferINS_6vectorIiNS_9allocatorIiEEEERNS2_IS4_EEEC2EmmS6_, symObjAddr: 0x110E0, symBinAddr: 0x100013080, symSize: 0xC0 }
  - { offsetInCU: 0x1D55A, offset: 0x1D55A, size: 0x8, addend: 0x0, symName: __ZNSt3__117__compressed_pairIPNS_6vectorIiNS_9allocatorIiEEEERNS2_IS4_EEEC1B7v160006IDnS7_EEOT_OT0_, symObjAddr: 0x111A0, symBinAddr: 0x100013140, symSize: 0x30 }
  - { offsetInCU: 0x1D5B2, offset: 0x1D5B2, size: 0x8, addend: 0x0, symName: __ZNSt3__114__split_bufferINS_6vectorIiNS_9allocatorIiEEEERNS2_IS4_EEE7__allocB7v160006Ev, symObjAddr: 0x11210, symBinAddr: 0x1000131B0, symSize: 0x20 }
  - { offsetInCU: 0x1D5D8, offset: 0x1D5D8, size: 0x8, addend: 0x0, symName: __ZNSt3__114__split_bufferINS_6vectorIiNS_9allocatorIiEEEERNS2_IS4_EEE9__end_capB7v160006Ev, symObjAddr: 0x11230, symBinAddr: 0x1000131D0, symSize: 0x20 }
  - { offsetInCU: 0x1D5FE, offset: 0x1D5FE, size: 0x8, addend: 0x0, symName: __ZNSt3__117__compressed_pairIPNS_6vectorIiNS_9allocatorIiEEEERNS2_IS4_EEEC2B7v160006IDnS7_EEOT_OT0_, symObjAddr: 0x11250, symBinAddr: 0x1000131F0, symSize: 0x40 }
  - { offsetInCU: 0x1D656, offset: 0x1D656, size: 0x8, addend: 0x0, symName: __ZNSt3__122__compressed_pair_elemIRNS_9allocatorINS_6vectorIiNS1_IiEEEEEELi1ELb0EEC2B7v160006IS6_vEEOT_, symObjAddr: 0x11290, symBinAddr: 0x100013230, symSize: 0x20 }
  - { offsetInCU: 0x1D698, offset: 0x1D698, size: 0x8, addend: 0x0, symName: __ZNSt3__19allocatorINS_6vectorIiNS0_IiEEEEE8allocateB7v160006Em, symObjAddr: 0x112B0, symBinAddr: 0x100013250, symSize: 0x50 }
  - { offsetInCU: 0x1D6CC, offset: 0x1D6CC, size: 0x8, addend: 0x0, symName: __ZNSt3__117__compressed_pairIPNS_6vectorIiNS_9allocatorIiEEEERNS2_IS4_EEE6secondB7v160006Ev, symObjAddr: 0x11300, symBinAddr: 0x1000132A0, symSize: 0x20 }
  - { offsetInCU: 0x1D6F2, offset: 0x1D6F2, size: 0x8, addend: 0x0, symName: __ZNSt3__122__compressed_pair_elemIRNS_9allocatorINS_6vectorIiNS1_IiEEEEEELi1ELb0EE5__getB7v160006Ev, symObjAddr: 0x11320, symBinAddr: 0x1000132C0, symSize: 0x20 }
  - { offsetInCU: 0x1D718, offset: 0x1D718, size: 0x8, addend: 0x0, symName: __ZNSt3__117__compressed_pairIPNS_6vectorIiNS_9allocatorIiEEEERNS2_IS4_EEE5firstB7v160006Ev, symObjAddr: 0x11340, symBinAddr: 0x1000132E0, symSize: 0x20 }
  - { offsetInCU: 0x1D73E, offset: 0x1D73E, size: 0x8, addend: 0x0, symName: __ZNSt3__116reverse_iteratorIPNS_6vectorIiNS_9allocatorIiEEEEEC1B7v160006ES5_, symObjAddr: 0x114E0, symBinAddr: 0x100013480, symSize: 0x30 }
  - { offsetInCU: 0x1D776, offset: 0x1D776, size: 0x8, addend: 0x0, symName: __ZNKSt3__116reverse_iteratorIPNS_6vectorIiNS_9allocatorIiEEEEE4baseB7v160006Ev, symObjAddr: 0x11510, symBinAddr: 0x1000134B0, symSize: 0x20 }
  - { offsetInCU: 0x1D79C, offset: 0x1D79C, size: 0x8, addend: 0x0, symName: __ZNKSt3__16vectorINS0_IiNS_9allocatorIiEEEENS1_IS3_EEE14__annotate_newB7v160006Em, symObjAddr: 0x11570, symBinAddr: 0x100013510, symSize: 0xA0 }
  - { offsetInCU: 0x1D7D1, offset: 0x1D7D1, size: 0x8, addend: 0x0, symName: __ZNSt3__129_AllocatorDestroyRangeReverseINS_9allocatorINS_6vectorIiNS1_IiEEEEEENS_16reverse_iteratorIPS4_EEEC1B7v160006ERS5_RS8_SB_, symObjAddr: 0x11680, symBinAddr: 0x100013620, symSize: 0x40 }
  - { offsetInCU: 0x1D828, offset: 0x1D828, size: 0x8, addend: 0x0, symName: __ZNSt3__116allocator_traitsINS_9allocatorINS_6vectorIiNS1_IiEEEEEEE9constructB7v160006IS4_JS4_EvEEvRS5_PT_DpOT0_, symObjAddr: 0x11700, symBinAddr: 0x1000136A0, symSize: 0x30 }
  - { offsetInCU: 0x1D87F, offset: 0x1D87F, size: 0x8, addend: 0x0, symName: __ZNKSt3__116reverse_iteratorIPNS_6vectorIiNS_9allocatorIiEEEEEdeB7v160006Ev, symObjAddr: 0x11750, symBinAddr: 0x1000136F0, symSize: 0x30 }
  - { offsetInCU: 0x1D8B3, offset: 0x1D8B3, size: 0x8, addend: 0x0, symName: __ZNSt3__116reverse_iteratorIPNS_6vectorIiNS_9allocatorIiEEEEEppB7v160006Ev, symObjAddr: 0x11780, symBinAddr: 0x100013720, symSize: 0x20 }
  - { offsetInCU: 0x1D8D9, offset: 0x1D8D9, size: 0x8, addend: 0x0, symName: __ZNSt3__128__exception_guard_exceptionsINS_29_AllocatorDestroyRangeReverseINS_9allocatorINS_6vectorIiNS2_IiEEEEEENS_16reverse_iteratorIPS5_EEEEE10__completeB7v160006Ev, symObjAddr: 0x117A0, symBinAddr: 0x100013740, symSize: 0x20 }
  - { offsetInCU: 0x1D8FF, offset: 0x1D8FF, size: 0x8, addend: 0x0, symName: __ZNSt3__128__exception_guard_exceptionsINS_29_AllocatorDestroyRangeReverseINS_9allocatorINS_6vectorIiNS2_IiEEEEEENS_16reverse_iteratorIPS5_EEEEED1B7v160006Ev, symObjAddr: 0x117C0, symBinAddr: 0x100013760, symSize: 0x20 }
  - { offsetInCU: 0x1D929, offset: 0x1D929, size: 0x8, addend: 0x0, symName: __ZNSt3__128__exception_guard_exceptionsINS_29_AllocatorDestroyRangeReverseINS_9allocatorINS_6vectorIiNS2_IiEEEEEENS_16reverse_iteratorIPS5_EEEEEC1B7v160006ESA_, symObjAddr: 0x117E0, symBinAddr: 0x100013780, symSize: 0x40 }
  - { offsetInCU: 0x1D961, offset: 0x1D961, size: 0x8, addend: 0x0, symName: __ZNSt3__128__exception_guard_exceptionsINS_29_AllocatorDestroyRangeReverseINS_9allocatorINS_6vectorIiNS2_IiEEEEEENS_16reverse_iteratorIPS5_EEEEEC2B7v160006ESA_, symObjAddr: 0x11820, symBinAddr: 0x1000137C0, symSize: 0x30 }
  - { offsetInCU: 0x1D999, offset: 0x1D999, size: 0x8, addend: 0x0, symName: __ZNSt3__129_AllocatorDestroyRangeReverseINS_9allocatorINS_6vectorIiNS1_IiEEEEEENS_16reverse_iteratorIPS4_EEEC2B7v160006ERS5_RS8_SB_, symObjAddr: 0x11850, symBinAddr: 0x1000137F0, symSize: 0x40 }
  - { offsetInCU: 0x1D9F0, offset: 0x1D9F0, size: 0x8, addend: 0x0, symName: __ZNSt3__19allocatorINS_6vectorIiNS0_IiEEEEE9constructB7v160006IS3_JS3_EEEvPT_DpOT0_, symObjAddr: 0x11890, symBinAddr: 0x100013830, symSize: 0x30 }
  - { offsetInCU: 0x1DA46, offset: 0x1DA46, size: 0x8, addend: 0x0, symName: __ZNSt3__16vectorIiNS_9allocatorIiEEEC1B7v160006EOS3_, symObjAddr: 0x118C0, symBinAddr: 0x100013860, symSize: 0x30 }
  - { offsetInCU: 0x1DA81, offset: 0x1DA81, size: 0x8, addend: 0x0, symName: __ZNSt3__16vectorIiNS_9allocatorIiEEEC2B7v160006EOS3_, symObjAddr: 0x118F0, symBinAddr: 0x100013890, symSize: 0xE0 }
  - { offsetInCU: 0x1DAC1, offset: 0x1DAC1, size: 0x8, addend: 0x0, symName: __ZNSt3__119__to_address_helperINS_16reverse_iteratorIPNS_6vectorIiNS_9allocatorIiEEEEEEvE6__callB7v160006ERKS7_, symObjAddr: 0x119E0, symBinAddr: 0x100013980, symSize: 0x40 }
  - { offsetInCU: 0x1DAE4, offset: 0x1DAE4, size: 0x8, addend: 0x0, symName: __ZNKSt3__116reverse_iteratorIPNS_6vectorIiNS_9allocatorIiEEEEEptB7v160006Ev, symObjAddr: 0x11A20, symBinAddr: 0x1000139C0, symSize: 0x20 }
  - { offsetInCU: 0x1DB0A, offset: 0x1DB0A, size: 0x8, addend: 0x0, symName: __ZNSt3__128__exception_guard_exceptionsINS_29_AllocatorDestroyRangeReverseINS_9allocatorINS_6vectorIiNS2_IiEEEEEENS_16reverse_iteratorIPS5_EEEEED2B7v160006Ev, symObjAddr: 0x11A40, symBinAddr: 0x1000139E0, symSize: 0x40 }
  - { offsetInCU: 0x1DB34, offset: 0x1DB34, size: 0x8, addend: 0x0, symName: __ZNKSt3__129_AllocatorDestroyRangeReverseINS_9allocatorINS_6vectorIiNS1_IiEEEEEENS_16reverse_iteratorIPS4_EEEclB7v160006Ev, symObjAddr: 0x11A80, symBinAddr: 0x100013A20, symSize: 0xF0 }
  - { offsetInCU: 0x1DB5B, offset: 0x1DB5B, size: 0x8, addend: 0x0, symName: __ZNSt3__116reverse_iteratorINS0_IPNS_6vectorIiNS_9allocatorIiEEEEEEEC1B7v160006ES6_, symObjAddr: 0x11BE0, symBinAddr: 0x100013B80, symSize: 0x30 }
  - { offsetInCU: 0x1DB93, offset: 0x1DB93, size: 0x8, addend: 0x0, symName: __ZNSt3__116reverse_iteratorINS0_IPNS_6vectorIiNS_9allocatorIiEEEEEEEppB7v160006Ev, symObjAddr: 0x11C80, symBinAddr: 0x100013C20, symSize: 0x30 }
  - { offsetInCU: 0x1DBB9, offset: 0x1DBB9, size: 0x8, addend: 0x0, symName: __ZNKSt3__116reverse_iteratorINS0_IPNS_6vectorIiNS_9allocatorIiEEEEEEE4baseB7v160006Ev, symObjAddr: 0x11CB0, symBinAddr: 0x100013C50, symSize: 0x20 }
  - { offsetInCU: 0x1DBE4, offset: 0x1DBE4, size: 0x8, addend: 0x0, symName: __ZNSt3__119__to_address_helperINS_16reverse_iteratorINS1_IPNS_6vectorIiNS_9allocatorIiEEEEEEEEvE6__callB7v160006ERKS8_, symObjAddr: 0x11CD0, symBinAddr: 0x100013C70, symSize: 0x40 }
  - { offsetInCU: 0x1DC07, offset: 0x1DC07, size: 0x8, addend: 0x0, symName: __ZNKSt3__116reverse_iteratorINS0_IPNS_6vectorIiNS_9allocatorIiEEEEEEEptB7v160006Ev, symObjAddr: 0x11D10, symBinAddr: 0x100013CB0, symSize: 0x20 }
  - { offsetInCU: 0x1DC2D, offset: 0x1DC2D, size: 0x8, addend: 0x0, symName: __ZNKSt3__116reverse_iteratorINS0_IPNS_6vectorIiNS_9allocatorIiEEEEEEEdeB7v160006Ev, symObjAddr: 0x11D30, symBinAddr: 0x100013CD0, symSize: 0x40 }
  - { offsetInCU: 0x1DC61, offset: 0x1DC61, size: 0x8, addend: 0x0, symName: __ZNSt3__116reverse_iteratorIPNS_6vectorIiNS_9allocatorIiEEEEEmmB7v160006Ev, symObjAddr: 0x11D70, symBinAddr: 0x100013D10, symSize: 0x20 }
  - { offsetInCU: 0x1DC87, offset: 0x1DC87, size: 0x8, addend: 0x0, symName: __ZNSt3__116reverse_iteratorINS0_IPNS_6vectorIiNS_9allocatorIiEEEEEEEC2B7v160006ES6_, symObjAddr: 0x11D90, symBinAddr: 0x100013D30, symSize: 0x40 }
  - { offsetInCU: 0x1DCBF, offset: 0x1DCBF, size: 0x8, addend: 0x0, symName: __ZNSt3__116reverse_iteratorIPNS_6vectorIiNS_9allocatorIiEEEEEC2B7v160006ES5_, symObjAddr: 0x11DD0, symBinAddr: 0x100013D70, symSize: 0x30 }
  - { offsetInCU: 0x1DCF7, offset: 0x1DCF7, size: 0x8, addend: 0x0, symName: __ZNSt3__114__split_bufferINS_6vectorIiNS_9allocatorIiEEEERNS2_IS4_EEED2Ev, symObjAddr: 0x11E00, symBinAddr: 0x100013DA0, symSize: 0x70 }
  - { offsetInCU: 0x1DD23, offset: 0x1DD23, size: 0x8, addend: 0x0, symName: __ZNSt3__114__split_bufferINS_6vectorIiNS_9allocatorIiEEEERNS2_IS4_EEE5clearB7v160006Ev, symObjAddr: 0x11E70, symBinAddr: 0x100013E10, symSize: 0x20 }
  - { offsetInCU: 0x1DD49, offset: 0x1DD49, size: 0x8, addend: 0x0, symName: __ZNKSt3__114__split_bufferINS_6vectorIiNS_9allocatorIiEEEERNS2_IS4_EEE8capacityB7v160006Ev, symObjAddr: 0x11E90, symBinAddr: 0x100013E30, symSize: 0x40 }
  - { offsetInCU: 0x1DD6F, offset: 0x1DD6F, size: 0x8, addend: 0x0, symName: __ZNSt3__114__split_bufferINS_6vectorIiNS_9allocatorIiEEEERNS2_IS4_EEE17__destruct_at_endB7v160006EPS4_, symObjAddr: 0x11ED0, symBinAddr: 0x100013E70, symSize: 0x30 }
  - { offsetInCU: 0x1DDA3, offset: 0x1DDA3, size: 0x8, addend: 0x0, symName: __ZNSt3__114__split_bufferINS_6vectorIiNS_9allocatorIiEEEERNS2_IS4_EEE17__destruct_at_endB7v160006EPS4_NS_17integral_constantIbLb0EEE, symObjAddr: 0x11F00, symBinAddr: 0x100013EA0, symSize: 0x80 }
  - { offsetInCU: 0x1DDE3, offset: 0x1DDE3, size: 0x8, addend: 0x0, symName: __ZNKSt3__114__split_bufferINS_6vectorIiNS_9allocatorIiEEEERNS2_IS4_EEE9__end_capB7v160006Ev, symObjAddr: 0x11F80, symBinAddr: 0x100013F20, symSize: 0x20 }
  - { offsetInCU: 0x1DE09, offset: 0x1DE09, size: 0x8, addend: 0x0, symName: __ZNKSt3__117__compressed_pairIPNS_6vectorIiNS_9allocatorIiEEEERNS2_IS4_EEE5firstB7v160006Ev, symObjAddr: 0x11FA0, symBinAddr: 0x100013F40, symSize: 0x20 }
  - { offsetInCU: 0x1DE4D, offset: 0x1DE4D, size: 0x8, addend: 0x0, symName: __ZNSt3__14pairIbiEC1B7v160006IbRiLPv0EEEOT_OT0_, symObjAddr: 0x11FC0, symBinAddr: 0x100013F60, symSize: 0x30 }
  - { offsetInCU: 0x1DEAB, offset: 0x1DEAB, size: 0x8, addend: 0x0, symName: __ZNSt3__14pairIbiEC2B7v160006IbRiLPv0EEEOT_OT0_, symObjAddr: 0x11FF0, symBinAddr: 0x100013F90, symSize: 0x30 }
  - { offsetInCU: 0x1DF09, offset: 0x1DF09, size: 0x8, addend: 0x0, symName: __ZNSt3__14pairIbiEC1B7v160006IbiLPv0EEEOT_OT0_, symObjAddr: 0x12020, symBinAddr: 0x100013FC0, symSize: 0x30 }
  - { offsetInCU: 0x1DF67, offset: 0x1DF67, size: 0x8, addend: 0x0, symName: __ZNSt3__14pairIbiEC2B7v160006IbiLPv0EEEOT_OT0_, symObjAddr: 0x12050, symBinAddr: 0x100013FF0, symSize: 0x30 }
  - { offsetInCU: 0x1DFC5, offset: 0x1DFC5, size: 0x8, addend: 0x0, symName: __ZNSt3__111char_traitsIcE2eqEcc, symObjAddr: 0x12130, symBinAddr: 0x1000140D0, symSize: 0x30 }
  - { offsetInCU: 0x1DFF6, offset: 0x1DFF6, size: 0x8, addend: 0x0, symName: __ZNSt3__112basic_stringIcNS_11char_traitsIcEENS_9allocatorIcEEEC2B7v160006Emc, symObjAddr: 0x12160, symBinAddr: 0x100014100, symSize: 0x50 }
  - { offsetInCU: 0x1E03E, offset: 0x1E03E, size: 0x8, addend: 0x0, symName: __ZNSt3__16vectorIiNS_9allocatorIiEEE8__appendEm, symObjAddr: 0x121B0, symBinAddr: 0x100014150, symSize: 0x100 }
  - { offsetInCU: 0x1E099, offset: 0x1E099, size: 0x8, addend: 0x0, symName: __ZNSt3__16vectorIiNS_9allocatorIiEEE17__destruct_at_endB7v160006EPi, symObjAddr: 0x122B0, symBinAddr: 0x100014250, symSize: 0x60 }
  - { offsetInCU: 0x1E0DD, offset: 0x1E0DD, size: 0x8, addend: 0x0, symName: __ZNSt3__16vectorIiNS_9allocatorIiEEE18__construct_at_endEm, symObjAddr: 0x12310, symBinAddr: 0x1000142B0, symSize: 0xC0 }
  - { offsetInCU: 0x1E14F, offset: 0x1E14F, size: 0x8, addend: 0x0, symName: __ZNSt3__114__split_bufferIiRNS_9allocatorIiEEE18__construct_at_endEm, symObjAddr: 0x123D0, symBinAddr: 0x100014370, symSize: 0xB0 }
  - { offsetInCU: 0x1E192, offset: 0x1E192, size: 0x8, addend: 0x0, symName: __ZNSt3__116allocator_traitsINS_9allocatorIiEEE9constructB7v160006IiJEvEEvRS2_PT_DpOT0_, symObjAddr: 0x12480, symBinAddr: 0x100014420, symSize: 0x30 }
  - { offsetInCU: 0x1E1D4, offset: 0x1E1D4, size: 0x8, addend: 0x0, symName: __ZNSt3__19allocatorIiE9constructB7v160006IiJEEEvPT_DpOT0_, symObjAddr: 0x124B0, symBinAddr: 0x100014450, symSize: 0x20 }
  - { offsetInCU: 0x1E220, offset: 0x1E220, size: 0x8, addend: 0x0, symName: __ZNSt3__114__split_bufferIiRNS_9allocatorIiEEE21_ConstructTransactionC1B7v160006EPPim, symObjAddr: 0x124D0, symBinAddr: 0x100014470, symSize: 0x30 }
  - { offsetInCU: 0x1E266, offset: 0x1E266, size: 0x8, addend: 0x0, symName: __ZNSt3__114__split_bufferIiRNS_9allocatorIiEEE21_ConstructTransactionD1B7v160006Ev, symObjAddr: 0x12500, symBinAddr: 0x1000144A0, symSize: 0x20 }
  - { offsetInCU: 0x1E290, offset: 0x1E290, size: 0x8, addend: 0x0, symName: __ZNSt3__114__split_bufferIiRNS_9allocatorIiEEE21_ConstructTransactionC2B7v160006EPPim, symObjAddr: 0x12520, symBinAddr: 0x1000144C0, symSize: 0x40 }
  - { offsetInCU: 0x1E2D6, offset: 0x1E2D6, size: 0x8, addend: 0x0, symName: __ZNSt3__114__split_bufferIiRNS_9allocatorIiEEE21_ConstructTransactionD2B7v160006Ev, symObjAddr: 0x12560, symBinAddr: 0x100014500, symSize: 0x20 }
  - { offsetInCU: 0x1E300, offset: 0x1E300, size: 0x8, addend: 0x0, symName: __ZNSt3__16vectorIiNS_9allocatorIiEEE27__invalidate_iterators_pastB7v160006EPi, symObjAddr: 0x12580, symBinAddr: 0x100014520, symSize: 0x10 }
  - { offsetInCU: 0x1E337, offset: 0x1E337, size: 0x8, addend: 0x0, symName: __ZNKSt3__16vectorIiNS_9allocatorIiEEE17__annotate_shrinkB7v160006Em, symObjAddr: 0x12590, symBinAddr: 0x100014530, symSize: 0xA0 }
  - { offsetInCU: 0x1E385, offset: 0x1E385, size: 0x8, addend: 0x0, symName: __ZNSt3__14pairINS_6vectorIiNS_9allocatorIiEEEES4_EC1B7v160006IRS4_S7_LPv0EEEOT_OT0_, symObjAddr: 0x12630, symBinAddr: 0x1000145D0, symSize: 0x30 }
  - { offsetInCU: 0x1E3E3, offset: 0x1E3E3, size: 0x8, addend: 0x0, symName: __ZNSt3__14pairINS_6vectorIiNS_9allocatorIiEEEES4_EC2B7v160006IRS4_S7_LPv0EEEOT_OT0_, symObjAddr: 0x12660, symBinAddr: 0x100014600, symSize: 0x60 }
  - { offsetInCU: 0x1E441, offset: 0x1E441, size: 0x8, addend: 0x0, symName: __ZNKSt3__16vectorIiNS_9allocatorIiEEE11__make_iterB7v160006EPKi, symObjAddr: 0x126C0, symBinAddr: 0x100014660, symSize: 0x30 }
  - { offsetInCU: 0x1E476, offset: 0x1E476, size: 0x8, addend: 0x0, symName: __ZNSt3__111__wrap_iterIPKiEC1B7v160006EPKvS2_, symObjAddr: 0x126F0, symBinAddr: 0x100014690, symSize: 0x30 }
  - { offsetInCU: 0x1E4BC, offset: 0x1E4BC, size: 0x8, addend: 0x0, symName: __ZNSt3__111__wrap_iterIPKiEC2B7v160006EPKvS2_, symObjAddr: 0x12720, symBinAddr: 0x1000146C0, symSize: 0x20 }
  - { offsetInCU: 0x1E502, offset: 0x1E502, size: 0x8, addend: 0x0, symName: __ZNSt3__16vectorI11TreeDiagramNS_9allocatorIS1_EEEC2B7v160006ESt16initializer_listIS1_E, symObjAddr: 0x12740, symBinAddr: 0x1000146E0, symSize: 0x120 }
  - { offsetInCU: 0x1E552, offset: 0x1E552, size: 0x8, addend: 0x0, symName: __ZNSt3__117__compressed_pairIP11TreeDiagramNS_9allocatorIS1_EEEC1B7v160006IDnNS_18__default_init_tagEEEOT_OT0_, symObjAddr: 0x12860, symBinAddr: 0x100014800, symSize: 0x30 }
  - { offsetInCU: 0x1E5AA, offset: 0x1E5AA, size: 0x8, addend: 0x0, symName: __ZNSt3__16vectorI11TreeDiagramNS_9allocatorIS1_EEE16__destroy_vectorC1ERS4_, symObjAddr: 0x128D0, symBinAddr: 0x100014870, symSize: 0x30 }
  - { offsetInCU: 0x1E5E3, offset: 0x1E5E3, size: 0x8, addend: 0x0, symName: __ZNKSt16initializer_listI11TreeDiagramE4sizeB7v160006Ev, symObjAddr: 0x12910, symBinAddr: 0x1000148B0, symSize: 0x20 }
  - { offsetInCU: 0x1E609, offset: 0x1E609, size: 0x8, addend: 0x0, symName: __ZNSt3__16vectorI11TreeDiagramNS_9allocatorIS1_EEE11__vallocateB7v160006Em, symObjAddr: 0x12930, symBinAddr: 0x1000148D0, symSize: 0xA0 }
  - { offsetInCU: 0x1E64D, offset: 0x1E64D, size: 0x8, addend: 0x0, symName: __ZNSt3__16vectorI11TreeDiagramNS_9allocatorIS1_EEE18__construct_at_endIPKS1_Li0EEEvT_S8_m, symObjAddr: 0x129D0, symBinAddr: 0x100014970, symSize: 0x90 }
  - { offsetInCU: 0x1E6C0, offset: 0x1E6C0, size: 0x8, addend: 0x0, symName: __ZNKSt16initializer_listI11TreeDiagramE5beginB7v160006Ev, symObjAddr: 0x12A60, symBinAddr: 0x100014A00, symSize: 0x20 }
  - { offsetInCU: 0x1E6E6, offset: 0x1E6E6, size: 0x8, addend: 0x0, symName: __ZNKSt16initializer_listI11TreeDiagramE3endB7v160006Ev, symObjAddr: 0x12A80, symBinAddr: 0x100014A20, symSize: 0x20 }
  - { offsetInCU: 0x1E70C, offset: 0x1E70C, size: 0x8, addend: 0x0, symName: __ZNSt3__128__exception_guard_exceptionsINS_6vectorI11TreeDiagramNS_9allocatorIS2_EEE16__destroy_vectorEE10__completeB7v160006Ev, symObjAddr: 0x12AA0, symBinAddr: 0x100014A40, symSize: 0x20 }
  - { offsetInCU: 0x1E732, offset: 0x1E732, size: 0x8, addend: 0x0, symName: __ZNSt3__128__exception_guard_exceptionsINS_6vectorI11TreeDiagramNS_9allocatorIS2_EEE16__destroy_vectorEED1B7v160006Ev, symObjAddr: 0x12AC0, symBinAddr: 0x100014A60, symSize: 0x20 }
  - { offsetInCU: 0x1E75C, offset: 0x1E75C, size: 0x8, addend: 0x0, symName: __ZNSt3__117__compressed_pairIP11TreeDiagramNS_9allocatorIS1_EEEC2B7v160006IDnNS_18__default_init_tagEEEOT_OT0_, symObjAddr: 0x12AE0, symBinAddr: 0x100014A80, symSize: 0x40 }
  - { offsetInCU: 0x1E7B4, offset: 0x1E7B4, size: 0x8, addend: 0x0, symName: __ZNSt3__122__compressed_pair_elemIP11TreeDiagramLi0ELb0EEC2B7v160006IDnvEEOT_, symObjAddr: 0x12B20, symBinAddr: 0x100014AC0, symSize: 0x20 }
  - { offsetInCU: 0x1E7F6, offset: 0x1E7F6, size: 0x8, addend: 0x0, symName: __ZNSt3__122__compressed_pair_elemINS_9allocatorI11TreeDiagramEELi1ELb1EEC2B7v160006ENS_18__default_init_tagE, symObjAddr: 0x12B40, symBinAddr: 0x100014AE0, symSize: 0x20 }
  - { offsetInCU: 0x1E82A, offset: 0x1E82A, size: 0x8, addend: 0x0, symName: __ZNSt3__19allocatorI11TreeDiagramEC2B7v160006Ev, symObjAddr: 0x12B60, symBinAddr: 0x100014B00, symSize: 0x20 }
  - { offsetInCU: 0x1E854, offset: 0x1E854, size: 0x8, addend: 0x0, symName: __ZNSt3__116__non_trivial_ifILb1ENS_9allocatorI11TreeDiagramEEEC2B7v160006Ev, symObjAddr: 0x12B80, symBinAddr: 0x100014B20, symSize: 0x10 }
  - { offsetInCU: 0x1E87E, offset: 0x1E87E, size: 0x8, addend: 0x0, symName: __ZNSt3__128__exception_guard_exceptionsINS_6vectorI11TreeDiagramNS_9allocatorIS2_EEE16__destroy_vectorEEC1B7v160006ES6_, symObjAddr: 0x12B90, symBinAddr: 0x100014B30, symSize: 0x30 }
  - { offsetInCU: 0x1E8B6, offset: 0x1E8B6, size: 0x8, addend: 0x0, symName: __ZNSt3__128__exception_guard_exceptionsINS_6vectorI11TreeDiagramNS_9allocatorIS2_EEE16__destroy_vectorEEC2B7v160006ES6_, symObjAddr: 0x12BC0, symBinAddr: 0x100014B60, symSize: 0x20 }
  - { offsetInCU: 0x1E8EE, offset: 0x1E8EE, size: 0x8, addend: 0x0, symName: __ZNSt3__16vectorI11TreeDiagramNS_9allocatorIS1_EEE16__destroy_vectorC2ERS4_, symObjAddr: 0x12BE0, symBinAddr: 0x100014B80, symSize: 0x20 }
  - { offsetInCU: 0x1E927, offset: 0x1E927, size: 0x8, addend: 0x0, symName: __ZNKSt3__16vectorI11TreeDiagramNS_9allocatorIS1_EEE8max_sizeEv, symObjAddr: 0x12C00, symBinAddr: 0x100014BA0, symSize: 0x60 }
  - { offsetInCU: 0x1E94F, offset: 0x1E94F, size: 0x8, addend: 0x0, symName: __ZNKSt3__16vectorI11TreeDiagramNS_9allocatorIS1_EEE20__throw_length_errorB7v160006Ev, symObjAddr: 0x12C60, symBinAddr: 0x100014C00, symSize: 0x20 }
  - { offsetInCU: 0x1E975, offset: 0x1E975, size: 0x8, addend: 0x0, symName: __ZNSt3__16vectorI11TreeDiagramNS_9allocatorIS1_EEE7__allocB7v160006Ev, symObjAddr: 0x12CC0, symBinAddr: 0x100014C60, symSize: 0x20 }
  - { offsetInCU: 0x1E99B, offset: 0x1E99B, size: 0x8, addend: 0x0, symName: __ZNSt3__16vectorI11TreeDiagramNS_9allocatorIS1_EEE9__end_capB7v160006Ev, symObjAddr: 0x12CE0, symBinAddr: 0x100014C80, symSize: 0x20 }
  - { offsetInCU: 0x1E9C1, offset: 0x1E9C1, size: 0x8, addend: 0x0, symName: __ZNKSt3__16vectorI11TreeDiagramNS_9allocatorIS1_EEE14__annotate_newB7v160006Em, symObjAddr: 0x12D00, symBinAddr: 0x100014CA0, symSize: 0xA0 }
  - { offsetInCU: 0x1EA00, offset: 0x1EA00, size: 0x8, addend: 0x0, symName: __ZNSt3__116allocator_traitsINS_9allocatorI11TreeDiagramEEE8max_sizeB7v160006IS3_vEEmRKS3_, symObjAddr: 0x12DA0, symBinAddr: 0x100014D40, symSize: 0x20 }
  - { offsetInCU: 0x1EA2E, offset: 0x1EA2E, size: 0x8, addend: 0x0, symName: __ZNKSt3__16vectorI11TreeDiagramNS_9allocatorIS1_EEE7__allocB7v160006Ev, symObjAddr: 0x12DC0, symBinAddr: 0x100014D60, symSize: 0x20 }
  - { offsetInCU: 0x1EA54, offset: 0x1EA54, size: 0x8, addend: 0x0, symName: __ZNKSt3__19allocatorI11TreeDiagramE8max_sizeB7v160006Ev, symObjAddr: 0x12DE0, symBinAddr: 0x100014D80, symSize: 0x20 }
  - { offsetInCU: 0x1EA7A, offset: 0x1EA7A, size: 0x8, addend: 0x0, symName: __ZNKSt3__117__compressed_pairIP11TreeDiagramNS_9allocatorIS1_EEE6secondB7v160006Ev, symObjAddr: 0x12E00, symBinAddr: 0x100014DA0, symSize: 0x20 }
  - { offsetInCU: 0x1EAA0, offset: 0x1EAA0, size: 0x8, addend: 0x0, symName: __ZNKSt3__122__compressed_pair_elemINS_9allocatorI11TreeDiagramEELi1ELb1EE5__getB7v160006Ev, symObjAddr: 0x12E20, symBinAddr: 0x100014DC0, symSize: 0x10 }
  - { offsetInCU: 0x1EAC6, offset: 0x1EAC6, size: 0x8, addend: 0x0, symName: __ZNSt3__19allocatorI11TreeDiagramE8allocateB7v160006Em, symObjAddr: 0x12E30, symBinAddr: 0x100014DD0, symSize: 0x50 }
  - { offsetInCU: 0x1EAFA, offset: 0x1EAFA, size: 0x8, addend: 0x0, symName: __ZNSt3__117__compressed_pairIP11TreeDiagramNS_9allocatorIS1_EEE6secondB7v160006Ev, symObjAddr: 0x12E80, symBinAddr: 0x100014E20, symSize: 0x20 }
  - { offsetInCU: 0x1EB20, offset: 0x1EB20, size: 0x8, addend: 0x0, symName: __ZNSt3__122__compressed_pair_elemINS_9allocatorI11TreeDiagramEELi1ELb1EE5__getB7v160006Ev, symObjAddr: 0x12EA0, symBinAddr: 0x100014E40, symSize: 0x10 }
  - { offsetInCU: 0x1EB46, offset: 0x1EB46, size: 0x8, addend: 0x0, symName: __ZNSt3__117__compressed_pairIP11TreeDiagramNS_9allocatorIS1_EEE5firstB7v160006Ev, symObjAddr: 0x12EB0, symBinAddr: 0x100014E50, symSize: 0x20 }
  - { offsetInCU: 0x1EB6C, offset: 0x1EB6C, size: 0x8, addend: 0x0, symName: __ZNSt3__122__compressed_pair_elemIP11TreeDiagramLi0ELb0EE5__getB7v160006Ev, symObjAddr: 0x12ED0, symBinAddr: 0x100014E70, symSize: 0x10 }
  - { offsetInCU: 0x1EB92, offset: 0x1EB92, size: 0x8, addend: 0x0, symName: __ZNKSt3__16vectorI11TreeDiagramNS_9allocatorIS1_EEE31__annotate_contiguous_containerB7v160006EPKvS6_S6_S6_, symObjAddr: 0x12EE0, symBinAddr: 0x100014E80, symSize: 0x20 }
  - { offsetInCU: 0x1EBE4, offset: 0x1EBE4, size: 0x8, addend: 0x0, symName: __ZNKSt3__16vectorI11TreeDiagramNS_9allocatorIS1_EEE4dataB7v160006Ev, symObjAddr: 0x12F00, symBinAddr: 0x100014EA0, symSize: 0x20 }
  - { offsetInCU: 0x1EC0A, offset: 0x1EC0A, size: 0x8, addend: 0x0, symName: __ZNKSt3__16vectorI11TreeDiagramNS_9allocatorIS1_EEE8capacityB7v160006Ev, symObjAddr: 0x12F20, symBinAddr: 0x100014EC0, symSize: 0x40 }
  - { offsetInCU: 0x1EC30, offset: 0x1EC30, size: 0x8, addend: 0x0, symName: __ZNKSt3__16vectorI11TreeDiagramNS_9allocatorIS1_EEE9__end_capB7v160006Ev, symObjAddr: 0x12F70, symBinAddr: 0x100014F10, symSize: 0x20 }
  - { offsetInCU: 0x1EC56, offset: 0x1EC56, size: 0x8, addend: 0x0, symName: __ZNKSt3__117__compressed_pairIP11TreeDiagramNS_9allocatorIS1_EEE5firstB7v160006Ev, symObjAddr: 0x12F90, symBinAddr: 0x100014F30, symSize: 0x20 }
  - { offsetInCU: 0x1EC7C, offset: 0x1EC7C, size: 0x8, addend: 0x0, symName: __ZNKSt3__122__compressed_pair_elemIP11TreeDiagramLi0ELb0EE5__getB7v160006Ev, symObjAddr: 0x12FB0, symBinAddr: 0x100014F50, symSize: 0x10 }
  - { offsetInCU: 0x1ECBB, offset: 0x1ECBB, size: 0x8, addend: 0x0, symName: __ZNSt3__16vectorI11TreeDiagramNS_9allocatorIS1_EEE21_ConstructTransactionC1B7v160006ERS4_m, symObjAddr: 0x12FC0, symBinAddr: 0x100014F60, symSize: 0x30 }
  - { offsetInCU: 0x1ED03, offset: 0x1ED03, size: 0x8, addend: 0x0, symName: __ZNSt3__16vectorI11TreeDiagramNS_9allocatorIS1_EEE21_ConstructTransactionD1B7v160006Ev, symObjAddr: 0x130F0, symBinAddr: 0x100015090, symSize: 0x20 }
  - { offsetInCU: 0x1ED2D, offset: 0x1ED2D, size: 0x8, addend: 0x0, symName: __ZNSt3__16vectorI11TreeDiagramNS_9allocatorIS1_EEE21_ConstructTransactionC2B7v160006ERS4_m, symObjAddr: 0x13110, symBinAddr: 0x1000150B0, symSize: 0x40 }
  - { offsetInCU: 0x1ED75, offset: 0x1ED75, size: 0x8, addend: 0x0, symName: __ZNSt3__129_AllocatorDestroyRangeReverseINS_9allocatorI11TreeDiagramEEPS2_EC1B7v160006ERS3_RS4_S7_, symObjAddr: 0x131B0, symBinAddr: 0x100015150, symSize: 0x40 }
  - { offsetInCU: 0x1EDCC, offset: 0x1EDCC, size: 0x8, addend: 0x0, symName: __ZNSt3__116allocator_traitsINS_9allocatorI11TreeDiagramEEE9constructB7v160006IS2_JRKS2_EvEEvRS3_PT_DpOT0_, symObjAddr: 0x131F0, symBinAddr: 0x100015190, symSize: 0x30 }
  - { offsetInCU: 0x1EE23, offset: 0x1EE23, size: 0x8, addend: 0x0, symName: __ZNSt3__128__exception_guard_exceptionsINS_29_AllocatorDestroyRangeReverseINS_9allocatorI11TreeDiagramEEPS3_EEE10__completeB7v160006Ev, symObjAddr: 0x13220, symBinAddr: 0x1000151C0, symSize: 0x20 }
  - { offsetInCU: 0x1EE49, offset: 0x1EE49, size: 0x8, addend: 0x0, symName: __ZNSt3__128__exception_guard_exceptionsINS_29_AllocatorDestroyRangeReverseINS_9allocatorI11TreeDiagramEEPS3_EEED1B7v160006Ev, symObjAddr: 0x13240, symBinAddr: 0x1000151E0, symSize: 0x20 }
  - { offsetInCU: 0x1EE73, offset: 0x1EE73, size: 0x8, addend: 0x0, symName: __ZNSt3__128__exception_guard_exceptionsINS_29_AllocatorDestroyRangeReverseINS_9allocatorI11TreeDiagramEEPS3_EEEC1B7v160006ES6_, symObjAddr: 0x13260, symBinAddr: 0x100015200, symSize: 0x40 }
  - { offsetInCU: 0x1EEAB, offset: 0x1EEAB, size: 0x8, addend: 0x0, symName: __ZNSt3__128__exception_guard_exceptionsINS_29_AllocatorDestroyRangeReverseINS_9allocatorI11TreeDiagramEEPS3_EEEC2B7v160006ES6_, symObjAddr: 0x132A0, symBinAddr: 0x100015240, symSize: 0x30 }
  - { offsetInCU: 0x1EEE3, offset: 0x1EEE3, size: 0x8, addend: 0x0, symName: __ZNSt3__129_AllocatorDestroyRangeReverseINS_9allocatorI11TreeDiagramEEPS2_EC2B7v160006ERS3_RS4_S7_, symObjAddr: 0x132D0, symBinAddr: 0x100015270, symSize: 0x40 }
  - { offsetInCU: 0x1EF3A, offset: 0x1EF3A, size: 0x8, addend: 0x0, symName: __ZNSt3__19allocatorI11TreeDiagramE9constructB7v160006IS1_JRKS1_EEEvPT_DpOT0_, symObjAddr: 0x13310, symBinAddr: 0x1000152B0, symSize: 0x30 }
  - { offsetInCU: 0x1EF90, offset: 0x1EF90, size: 0x8, addend: 0x0, symName: __ZNSt3__128__exception_guard_exceptionsINS_29_AllocatorDestroyRangeReverseINS_9allocatorI11TreeDiagramEEPS3_EEED2B7v160006Ev, symObjAddr: 0x13340, symBinAddr: 0x1000152E0, symSize: 0x40 }
  - { offsetInCU: 0x1EFBA, offset: 0x1EFBA, size: 0x8, addend: 0x0, symName: __ZNKSt3__129_AllocatorDestroyRangeReverseINS_9allocatorI11TreeDiagramEEPS2_EclB7v160006Ev, symObjAddr: 0x13380, symBinAddr: 0x100015320, symSize: 0x60 }
  - { offsetInCU: 0x1EFE0, offset: 0x1EFE0, size: 0x8, addend: 0x0, symName: __ZNSt3__116reverse_iteratorIP11TreeDiagramEC1B7v160006ES2_, symObjAddr: 0x13450, symBinAddr: 0x1000153F0, symSize: 0x30 }
  - { offsetInCU: 0x1F018, offset: 0x1F018, size: 0x8, addend: 0x0, symName: __ZNSt3__116allocator_traitsINS_9allocatorI11TreeDiagramEEE7destroyB7v160006IS2_vEEvRS3_PT_, symObjAddr: 0x134C0, symBinAddr: 0x100015460, symSize: 0x30 }
  - { offsetInCU: 0x1F055, offset: 0x1F055, size: 0x8, addend: 0x0, symName: __ZNSt3__116reverse_iteratorIP11TreeDiagramEppB7v160006Ev, symObjAddr: 0x13510, symBinAddr: 0x1000154B0, symSize: 0x20 }
  - { offsetInCU: 0x1F07B, offset: 0x1F07B, size: 0x8, addend: 0x0, symName: __ZNKSt3__116reverse_iteratorIP11TreeDiagramE4baseB7v160006Ev, symObjAddr: 0x13530, symBinAddr: 0x1000154D0, symSize: 0x20 }
  - { offsetInCU: 0x1F0A1, offset: 0x1F0A1, size: 0x8, addend: 0x0, symName: __ZNSt3__19allocatorI11TreeDiagramE7destroyB7v160006EPS1_, symObjAddr: 0x13550, symBinAddr: 0x1000154F0, symSize: 0x20 }
  - { offsetInCU: 0x1F0DA, offset: 0x1F0DA, size: 0x8, addend: 0x0, symName: __ZNSt3__119__to_address_helperINS_16reverse_iteratorIP11TreeDiagramEEvE6__callB7v160006ERKS4_, symObjAddr: 0x13570, symBinAddr: 0x100015510, symSize: 0x40 }
  - { offsetInCU: 0x1F0FD, offset: 0x1F0FD, size: 0x8, addend: 0x0, symName: __ZNKSt3__116reverse_iteratorIP11TreeDiagramEptB7v160006Ev, symObjAddr: 0x135B0, symBinAddr: 0x100015550, symSize: 0x20 }
  - { offsetInCU: 0x1F123, offset: 0x1F123, size: 0x8, addend: 0x0, symName: __ZNKSt3__116reverse_iteratorIP11TreeDiagramEdeB7v160006Ev, symObjAddr: 0x135D0, symBinAddr: 0x100015570, symSize: 0x30 }
  - { offsetInCU: 0x1F157, offset: 0x1F157, size: 0x8, addend: 0x0, symName: __ZNSt3__116reverse_iteratorIP11TreeDiagramEC2B7v160006ES2_, symObjAddr: 0x13600, symBinAddr: 0x1000155A0, symSize: 0x30 }
  - { offsetInCU: 0x1F18F, offset: 0x1F18F, size: 0x8, addend: 0x0, symName: __ZNSt3__16vectorI11TreeDiagramNS_9allocatorIS1_EEE21_ConstructTransactionD2B7v160006Ev, symObjAddr: 0x13630, symBinAddr: 0x1000155D0, symSize: 0x20 }
  - { offsetInCU: 0x1F1B9, offset: 0x1F1B9, size: 0x8, addend: 0x0, symName: __ZNSt3__128__exception_guard_exceptionsINS_6vectorI11TreeDiagramNS_9allocatorIS2_EEE16__destroy_vectorEED2B7v160006Ev, symObjAddr: 0x13650, symBinAddr: 0x1000155F0, symSize: 0x40 }
  - { offsetInCU: 0x1F1E3, offset: 0x1F1E3, size: 0x8, addend: 0x0, symName: __ZNSt3__16vectorI11TreeDiagramNS_9allocatorIS1_EEE16__destroy_vectorclB7v160006Ev, symObjAddr: 0x13690, symBinAddr: 0x100015630, symSize: 0x90 }
  - { offsetInCU: 0x1F209, offset: 0x1F209, size: 0x8, addend: 0x0, symName: __ZNKSt3__16vectorI11TreeDiagramNS_9allocatorIS1_EEE17__annotate_deleteB7v160006Ev, symObjAddr: 0x13720, symBinAddr: 0x1000156C0, symSize: 0xB0 }
  - { offsetInCU: 0x1F22F, offset: 0x1F22F, size: 0x8, addend: 0x0, symName: __ZNSt3__16vectorI11TreeDiagramNS_9allocatorIS1_EEE7__clearB7v160006Ev, symObjAddr: 0x137E0, symBinAddr: 0x100015780, symSize: 0x20 }
  - { offsetInCU: 0x1F255, offset: 0x1F255, size: 0x8, addend: 0x0, symName: __ZNSt3__116allocator_traitsINS_9allocatorI11TreeDiagramEEE10deallocateB7v160006ERS3_PS2_m, symObjAddr: 0x13800, symBinAddr: 0x1000157A0, symSize: 0x30 }
  - { offsetInCU: 0x1F297, offset: 0x1F297, size: 0x8, addend: 0x0, symName: __ZNSt3__16vectorI11TreeDiagramNS_9allocatorIS1_EEE22__base_destruct_at_endB7v160006EPS1_, symObjAddr: 0x13830, symBinAddr: 0x1000157D0, symSize: 0x80 }
  - { offsetInCU: 0x1F2DB, offset: 0x1F2DB, size: 0x8, addend: 0x0, symName: __ZNSt3__19allocatorI11TreeDiagramE10deallocateB7v160006EPS1_m, symObjAddr: 0x138B0, symBinAddr: 0x100015850, symSize: 0x50 }
  - { offsetInCU: 0x1F31D, offset: 0x1F31D, size: 0x8, addend: 0x0, symName: __ZNSt3__16vectorI11TreeDiagramNS_9allocatorIS1_EEED2B7v160006Ev, symObjAddr: 0x13900, symBinAddr: 0x1000158A0, symSize: 0x40 }
  - { offsetInCU: 0x1F347, offset: 0x1F347, size: 0x8, addend: 0x0, symName: __ZNSt3__16vectorI11TreeDiagramNS_9allocatorIS1_EEE22__construct_one_at_endB7v160006IJS1_EEEvDpOT_, symObjAddr: 0x13940, symBinAddr: 0x1000158E0, symSize: 0x90 }
  - { offsetInCU: 0x1F396, offset: 0x1F396, size: 0x8, addend: 0x0, symName: __ZNSt3__16vectorI11TreeDiagramNS_9allocatorIS1_EEE21__push_back_slow_pathIS1_EEvOT_, symObjAddr: 0x139D0, symBinAddr: 0x100015970, symSize: 0xD0 }
  - { offsetInCU: 0x1F3F4, offset: 0x1F3F4, size: 0x8, addend: 0x0, symName: __ZNSt3__116allocator_traitsINS_9allocatorI11TreeDiagramEEE9constructB7v160006IS2_JS2_EvEEvRS3_PT_DpOT0_, symObjAddr: 0x13AA0, symBinAddr: 0x100015A40, symSize: 0x30 }
  - { offsetInCU: 0x1F44B, offset: 0x1F44B, size: 0x8, addend: 0x0, symName: __ZNSt3__19allocatorI11TreeDiagramE9constructB7v160006IS1_JS1_EEEvPT_DpOT0_, symObjAddr: 0x13AD0, symBinAddr: 0x100015A70, symSize: 0x30 }
  - { offsetInCU: 0x1F4A1, offset: 0x1F4A1, size: 0x8, addend: 0x0, symName: __ZNKSt3__16vectorI11TreeDiagramNS_9allocatorIS1_EEE11__recommendB7v160006Em, symObjAddr: 0x13B00, symBinAddr: 0x100015AA0, symSize: 0xA0 }
  - { offsetInCU: 0x1F4F6, offset: 0x1F4F6, size: 0x8, addend: 0x0, symName: __ZNSt3__114__split_bufferI11TreeDiagramRNS_9allocatorIS1_EEEC1EmmS4_, symObjAddr: 0x13BA0, symBinAddr: 0x100015B40, symSize: 0x40 }
  - { offsetInCU: 0x1F54C, offset: 0x1F54C, size: 0x8, addend: 0x0, symName: __ZNSt3__114__split_bufferI11TreeDiagramRNS_9allocatorIS1_EEED1Ev, symObjAddr: 0x13D10, symBinAddr: 0x100015CB0, symSize: 0x20 }
  - { offsetInCU: 0x1F578, offset: 0x1F578, size: 0x8, addend: 0x0, symName: __ZNSt3__114__split_bufferI11TreeDiagramRNS_9allocatorIS1_EEEC2EmmS4_, symObjAddr: 0x13D30, symBinAddr: 0x100015CD0, symSize: 0xC0 }
  - { offsetInCU: 0x1F5EB, offset: 0x1F5EB, size: 0x8, addend: 0x0, symName: __ZNSt3__117__compressed_pairIP11TreeDiagramRNS_9allocatorIS1_EEEC1B7v160006IDnS5_EEOT_OT0_, symObjAddr: 0x13DF0, symBinAddr: 0x100015D90, symSize: 0x30 }
  - { offsetInCU: 0x1F643, offset: 0x1F643, size: 0x8, addend: 0x0, symName: __ZNSt3__114__split_bufferI11TreeDiagramRNS_9allocatorIS1_EEE7__allocB7v160006Ev, symObjAddr: 0x13E20, symBinAddr: 0x100015DC0, symSize: 0x20 }
  - { offsetInCU: 0x1F669, offset: 0x1F669, size: 0x8, addend: 0x0, symName: __ZNSt3__114__split_bufferI11TreeDiagramRNS_9allocatorIS1_EEE9__end_capB7v160006Ev, symObjAddr: 0x13E40, symBinAddr: 0x100015DE0, symSize: 0x20 }
  - { offsetInCU: 0x1F68F, offset: 0x1F68F, size: 0x8, addend: 0x0, symName: __ZNSt3__117__compressed_pairIP11TreeDiagramRNS_9allocatorIS1_EEEC2B7v160006IDnS5_EEOT_OT0_, symObjAddr: 0x13E60, symBinAddr: 0x100015E00, symSize: 0x40 }
  - { offsetInCU: 0x1F6E7, offset: 0x1F6E7, size: 0x8, addend: 0x0, symName: __ZNSt3__122__compressed_pair_elemIRNS_9allocatorI11TreeDiagramEELi1ELb0EEC2B7v160006IS4_vEEOT_, symObjAddr: 0x13EA0, symBinAddr: 0x100015E40, symSize: 0x20 }
  - { offsetInCU: 0x1F729, offset: 0x1F729, size: 0x8, addend: 0x0, symName: __ZNSt3__117__compressed_pairIP11TreeDiagramRNS_9allocatorIS1_EEE6secondB7v160006Ev, symObjAddr: 0x13EC0, symBinAddr: 0x100015E60, symSize: 0x20 }
  - { offsetInCU: 0x1F74F, offset: 0x1F74F, size: 0x8, addend: 0x0, symName: __ZNSt3__122__compressed_pair_elemIRNS_9allocatorI11TreeDiagramEELi1ELb0EE5__getB7v160006Ev, symObjAddr: 0x13EE0, symBinAddr: 0x100015E80, symSize: 0x20 }
  - { offsetInCU: 0x1F775, offset: 0x1F775, size: 0x8, addend: 0x0, symName: __ZNSt3__117__compressed_pairIP11TreeDiagramRNS_9allocatorIS1_EEE5firstB7v160006Ev, symObjAddr: 0x13F00, symBinAddr: 0x100015EA0, symSize: 0x20 }
  - { offsetInCU: 0x1F79B, offset: 0x1F79B, size: 0x8, addend: 0x0, symName: __ZNSt3__129_AllocatorDestroyRangeReverseINS_9allocatorI11TreeDiagramEENS_16reverse_iteratorIPS2_EEEC1B7v160006ERS3_RS6_S9_, symObjAddr: 0x14140, symBinAddr: 0x1000160E0, symSize: 0x40 }
  - { offsetInCU: 0x1F7F2, offset: 0x1F7F2, size: 0x8, addend: 0x0, symName: __ZNSt3__128__exception_guard_exceptionsINS_29_AllocatorDestroyRangeReverseINS_9allocatorI11TreeDiagramEENS_16reverse_iteratorIPS3_EEEEE10__completeB7v160006Ev, symObjAddr: 0x14180, symBinAddr: 0x100016120, symSize: 0x20 }
  - { offsetInCU: 0x1F818, offset: 0x1F818, size: 0x8, addend: 0x0, symName: __ZNSt3__128__exception_guard_exceptionsINS_29_AllocatorDestroyRangeReverseINS_9allocatorI11TreeDiagramEENS_16reverse_iteratorIPS3_EEEEED1B7v160006Ev, symObjAddr: 0x141A0, symBinAddr: 0x100016140, symSize: 0x20 }
  - { offsetInCU: 0x1F842, offset: 0x1F842, size: 0x8, addend: 0x0, symName: __ZNSt3__128__exception_guard_exceptionsINS_29_AllocatorDestroyRangeReverseINS_9allocatorI11TreeDiagramEENS_16reverse_iteratorIPS3_EEEEEC1B7v160006ES8_, symObjAddr: 0x141C0, symBinAddr: 0x100016160, symSize: 0x40 }
  - { offsetInCU: 0x1F87A, offset: 0x1F87A, size: 0x8, addend: 0x0, symName: __ZNSt3__128__exception_guard_exceptionsINS_29_AllocatorDestroyRangeReverseINS_9allocatorI11TreeDiagramEENS_16reverse_iteratorIPS3_EEEEEC2B7v160006ES8_, symObjAddr: 0x14200, symBinAddr: 0x1000161A0, symSize: 0x30 }
  - { offsetInCU: 0x1F8B2, offset: 0x1F8B2, size: 0x8, addend: 0x0, symName: __ZNSt3__129_AllocatorDestroyRangeReverseINS_9allocatorI11TreeDiagramEENS_16reverse_iteratorIPS2_EEEC2B7v160006ERS3_RS6_S9_, symObjAddr: 0x14230, symBinAddr: 0x1000161D0, symSize: 0x40 }
  - { offsetInCU: 0x1F909, offset: 0x1F909, size: 0x8, addend: 0x0, symName: __ZNSt3__128__exception_guard_exceptionsINS_29_AllocatorDestroyRangeReverseINS_9allocatorI11TreeDiagramEENS_16reverse_iteratorIPS3_EEEEED2B7v160006Ev, symObjAddr: 0x14270, symBinAddr: 0x100016210, symSize: 0x40 }
  - { offsetInCU: 0x1F933, offset: 0x1F933, size: 0x8, addend: 0x0, symName: __ZNKSt3__129_AllocatorDestroyRangeReverseINS_9allocatorI11TreeDiagramEENS_16reverse_iteratorIPS2_EEEclB7v160006Ev, symObjAddr: 0x142B0, symBinAddr: 0x100016250, symSize: 0xF0 }
  - { offsetInCU: 0x1F95A, offset: 0x1F95A, size: 0x8, addend: 0x0, symName: __ZNSt3__116reverse_iteratorINS0_IP11TreeDiagramEEEC1B7v160006ES3_, symObjAddr: 0x14410, symBinAddr: 0x1000163B0, symSize: 0x30 }
  - { offsetInCU: 0x1F992, offset: 0x1F992, size: 0x8, addend: 0x0, symName: __ZNSt3__116reverse_iteratorINS0_IP11TreeDiagramEEEppB7v160006Ev, symObjAddr: 0x144B0, symBinAddr: 0x100016450, symSize: 0x30 }
  - { offsetInCU: 0x1F9B8, offset: 0x1F9B8, size: 0x8, addend: 0x0, symName: __ZNKSt3__116reverse_iteratorINS0_IP11TreeDiagramEEE4baseB7v160006Ev, symObjAddr: 0x144E0, symBinAddr: 0x100016480, symSize: 0x20 }
  - { offsetInCU: 0x1F9E3, offset: 0x1F9E3, size: 0x8, addend: 0x0, symName: __ZNSt3__119__to_address_helperINS_16reverse_iteratorINS1_IP11TreeDiagramEEEEvE6__callB7v160006ERKS5_, symObjAddr: 0x14500, symBinAddr: 0x1000164A0, symSize: 0x40 }
  - { offsetInCU: 0x1FA06, offset: 0x1FA06, size: 0x8, addend: 0x0, symName: __ZNKSt3__116reverse_iteratorINS0_IP11TreeDiagramEEEptB7v160006Ev, symObjAddr: 0x14540, symBinAddr: 0x1000164E0, symSize: 0x20 }
  - { offsetInCU: 0x1FA2C, offset: 0x1FA2C, size: 0x8, addend: 0x0, symName: __ZNKSt3__116reverse_iteratorINS0_IP11TreeDiagramEEEdeB7v160006Ev, symObjAddr: 0x14560, symBinAddr: 0x100016500, symSize: 0x40 }
  - { offsetInCU: 0x1FA60, offset: 0x1FA60, size: 0x8, addend: 0x0, symName: __ZNSt3__116reverse_iteratorIP11TreeDiagramEmmB7v160006Ev, symObjAddr: 0x145A0, symBinAddr: 0x100016540, symSize: 0x20 }
  - { offsetInCU: 0x1FA86, offset: 0x1FA86, size: 0x8, addend: 0x0, symName: __ZNSt3__116reverse_iteratorINS0_IP11TreeDiagramEEEC2B7v160006ES3_, symObjAddr: 0x145C0, symBinAddr: 0x100016560, symSize: 0x40 }
  - { offsetInCU: 0x1FABE, offset: 0x1FABE, size: 0x8, addend: 0x0, symName: __ZNSt3__114__split_bufferI11TreeDiagramRNS_9allocatorIS1_EEED2Ev, symObjAddr: 0x14600, symBinAddr: 0x1000165A0, symSize: 0x70 }
  - { offsetInCU: 0x1FAEA, offset: 0x1FAEA, size: 0x8, addend: 0x0, symName: __ZNSt3__114__split_bufferI11TreeDiagramRNS_9allocatorIS1_EEE5clearB7v160006Ev, symObjAddr: 0x14670, symBinAddr: 0x100016610, symSize: 0x20 }
  - { offsetInCU: 0x1FB10, offset: 0x1FB10, size: 0x8, addend: 0x0, symName: __ZNKSt3__114__split_bufferI11TreeDiagramRNS_9allocatorIS1_EEE8capacityB7v160006Ev, symObjAddr: 0x14690, symBinAddr: 0x100016630, symSize: 0x40 }
  - { offsetInCU: 0x1FB36, offset: 0x1FB36, size: 0x8, addend: 0x0, symName: __ZNSt3__114__split_bufferI11TreeDiagramRNS_9allocatorIS1_EEE17__destruct_at_endB7v160006EPS1_, symObjAddr: 0x146D0, symBinAddr: 0x100016670, symSize: 0x30 }
  - { offsetInCU: 0x1FB6A, offset: 0x1FB6A, size: 0x8, addend: 0x0, symName: __ZNSt3__114__split_bufferI11TreeDiagramRNS_9allocatorIS1_EEE17__destruct_at_endB7v160006EPS1_NS_17integral_constantIbLb0EEE, symObjAddr: 0x14700, symBinAddr: 0x1000166A0, symSize: 0x80 }
  - { offsetInCU: 0x1FBAA, offset: 0x1FBAA, size: 0x8, addend: 0x0, symName: __ZNKSt3__114__split_bufferI11TreeDiagramRNS_9allocatorIS1_EEE9__end_capB7v160006Ev, symObjAddr: 0x14780, symBinAddr: 0x100016720, symSize: 0x20 }
  - { offsetInCU: 0x1FBD0, offset: 0x1FBD0, size: 0x8, addend: 0x0, symName: __ZNKSt3__117__compressed_pairIP11TreeDiagramRNS_9allocatorIS1_EEE5firstB7v160006Ev, symObjAddr: 0x147A0, symBinAddr: 0x100016740, symSize: 0x20 }
  - { offsetInCU: 0x1FBF6, offset: 0x1FBF6, size: 0x8, addend: 0x0, symName: __ZNSt3__16vectorI11TreeDiagramNS_9allocatorIS1_EEEC2B7v160006Ev, symObjAddr: 0x147C0, symBinAddr: 0x100016760, symSize: 0x60 }
  - { offsetInCU: 0x1FC20, offset: 0x1FC20, size: 0x8, addend: 0x0, symName: __ZNSt3__16vectorI11TreeDiagramNS_9allocatorIS1_EEE22__construct_one_at_endB7v160006IJRKS1_EEEvDpOT_, symObjAddr: 0x14820, symBinAddr: 0x1000167C0, symSize: 0x90 }
  - { offsetInCU: 0x1FC6F, offset: 0x1FC6F, size: 0x8, addend: 0x0, symName: __ZNSt3__16vectorI11TreeDiagramNS_9allocatorIS1_EEE21__push_back_slow_pathIRKS1_EEvOT_, symObjAddr: 0x148B0, symBinAddr: 0x100016850, symSize: 0xD0 }
  - { offsetInCU: 0x1FCEB, offset: 0x1FCEB, size: 0x8, addend: 0x0, symName: __ZNKSt3__16chrono10time_pointINS0_12steady_clockENS0_8durationIxNS_5ratioILl1ELl1000000000EEEEEE16time_since_epochB7v160006Ev, symObjAddr: 0x149F0, symBinAddr: 0x100016990, symSize: 0x20 }
  - { offsetInCU: 0x1FD1B, offset: 0x1FD1B, size: 0x8, addend: 0x0, symName: __ZNSt3__16chrono8durationIxNS_5ratioILl1ELl1000000000EEEEC1B7v160006IxEERKT_PNS_9enable_ifIXaasr14is_convertibleIS8_xEE5valueooL_ZNS_17integral_constantIbLb0EE5valueEEntsr23treat_as_floating_pointIS6_EE5valueEvE4typeE, symObjAddr: 0x14A10, symBinAddr: 0x1000169B0, symSize: 0x30 }
  - { offsetInCU: 0x1FD67, offset: 0x1FD67, size: 0x8, addend: 0x0, symName: __ZNSt3__16chrono8durationIxNS_5ratioILl1ELl1000000000EEEEC2B7v160006IxEERKT_PNS_9enable_ifIXaasr14is_convertibleIS8_xEE5valueooL_ZNS_17integral_constantIbLb0EE5valueEEntsr23treat_as_floating_pointIS6_EE5valueEvE4typeE, symObjAddr: 0x14A40, symBinAddr: 0x1000169E0, symSize: 0x20 }
...
